
image.elf:     file format elf32-bigmips


Disassembly of section .text:

40000000 <_entry>:
40000000:	3c054000 	lui	a1,0x4000
40000004:	24a53ca0 	addiu	a1,a1,15520
40000008:	3c044008 	lui	a0,0x4008
4000000c:	2484f064 	addiu	a0,a0,-3996
40000010:	3c1c4001 	lui	gp,0x4001
40000014:	279cbc88 	addiu	gp,gp,-17272
40000018:	3c1d5000 	lui	sp,0x5000
4000001c:	27bdfffc 	addiu	sp,sp,-4
40000020:	aca00000 	sw	zero,0(a1)
40000024:	00a4182a 	slt	v1,a1,a0
40000028:	24a50004 	addiu	a1,a1,4
4000002c:	1460fffc 	bnez	v1,40000020 <_entry+0x20>
40000030:	00000000 	nop
40000034:	3c1b4000 	lui	k1,0x4000
40000038:	277b0100 	addiu	k1,k1,256
4000003c:	3c1af000 	lui	k0,0xf000
40000040:	af5b0000 	sw	k1,0(k0)
40000044:	0c000705 	jal	40001c14 <main>
40000048:	00000000 	nop
4000004c:	3c1ae000 	lui	k0,0xe000
40000050:	af400000 	sw	zero,0(k0)
40000054:	1000ffff 	b	40000054 <_entry+0x54>
40000058:	00000000 	nop
	...

40000100 <_isr>:
40000100:	00000000 	nop
40000104:	27bdff98 	addiu	sp,sp,-104
40000108:	afa10010 	sw	at,16(sp)
4000010c:	afa20014 	sw	v0,20(sp)
40000110:	afa30018 	sw	v1,24(sp)
40000114:	afa4001c 	sw	a0,28(sp)
40000118:	afa50020 	sw	a1,32(sp)
4000011c:	afa60024 	sw	a2,36(sp)
40000120:	afa70028 	sw	a3,40(sp)
40000124:	afa8002c 	sw	t0,44(sp)
40000128:	afa90030 	sw	t1,48(sp)
4000012c:	afaa0034 	sw	t2,52(sp)
40000130:	afab0038 	sw	t3,56(sp)
40000134:	afac003c 	sw	t4,60(sp)
40000138:	afad0040 	sw	t5,64(sp)
4000013c:	afae0044 	sw	t6,68(sp)
40000140:	afaf0048 	sw	t7,72(sp)
40000144:	afb8004c 	sw	t8,76(sp)
40000148:	afb90050 	sw	t9,80(sp)
4000014c:	afbf0054 	sw	ra,84(sp)
40000150:	3c1af000 	lui	k0,0xf000
40000154:	375a0040 	ori	k0,k0,0x40
40000158:	8f5a0000 	lw	k0,0(k0)
4000015c:	275afffc 	addiu	k0,k0,-4
40000160:	afba0058 	sw	k0,88(sp)
40000164:	0000d810 	mfhi	k1
40000168:	afbb005c 	sw	k1,92(sp)
4000016c:	0000d812 	mflo	k1
40000170:	afbb0060 	sw	k1,96(sp)
40000174:	3c05f000 	lui	a1,0xf000
40000178:	8ca40010 	lw	a0,16(a1)
4000017c:	8ca60020 	lw	a2,32(a1)
40000180:	00862024 	and	a0,a0,a2
40000184:	0c00015f 	jal	4000057c <_irq_handler>
40000188:	27a50000 	addiu	a1,sp,0
4000018c:	8fa10010 	lw	at,16(sp)
40000190:	8fa20014 	lw	v0,20(sp)
40000194:	8fa30018 	lw	v1,24(sp)
40000198:	8fa4001c 	lw	a0,28(sp)
4000019c:	8fa50020 	lw	a1,32(sp)
400001a0:	8fa60024 	lw	a2,36(sp)
400001a4:	8fa70028 	lw	a3,40(sp)
400001a8:	8fa8002c 	lw	t0,44(sp)
400001ac:	8fa90030 	lw	t1,48(sp)
400001b0:	8faa0034 	lw	t2,52(sp)
400001b4:	8fab0038 	lw	t3,56(sp)
400001b8:	8fac003c 	lw	t4,60(sp)
400001bc:	8fad0040 	lw	t5,64(sp)
400001c0:	8fae0044 	lw	t6,68(sp)
400001c4:	8faf0048 	lw	t7,72(sp)
400001c8:	8fb8004c 	lw	t8,76(sp)
400001cc:	8fb90050 	lw	t9,80(sp)
400001d0:	8fbf0054 	lw	ra,84(sp)
400001d4:	8fba0058 	lw	k0,88(sp)
400001d8:	8fbb005c 	lw	k1,92(sp)
400001dc:	03600011 	mthi	k1
400001e0:	8fbb0060 	lw	k1,96(sp)
400001e4:	03600013 	mtlo	k1
400001e8:	27bd0068 	addiu	sp,sp,104
400001ec:	341b0001 	li	k1,0x1
400001f0:	3c1af000 	lui	k0,0xf000
400001f4:	375a0030 	ori	k0,k0,0x30
400001f8:	af5b0000 	sw	k1,0(k0)
400001fc:	8fbafff0 	lw	k0,-16(sp)
40000200:	03400008 	jr	k0
40000204:	00000000 	nop

40000208 <_interrupt_set>:
40000208:	3c03f000 	lui	v1,0xf000
4000020c:	34630030 	ori	v1,v1,0x30
40000210:	8c620000 	lw	v0,0(v1)
40000214:	ac640000 	sw	a0,0(v1)
40000218:	03e00008 	jr	ra
4000021c:	00000000 	nop

40000220 <setjmp>:
40000220:	ac900000 	sw	s0,0(a0)
40000224:	ac910004 	sw	s1,4(a0)
40000228:	ac920008 	sw	s2,8(a0)
4000022c:	ac93000c 	sw	s3,12(a0)
40000230:	ac940010 	sw	s4,16(a0)
40000234:	ac950014 	sw	s5,20(a0)
40000238:	ac960018 	sw	s6,24(a0)
4000023c:	ac97001c 	sw	s7,28(a0)
40000240:	ac9e0020 	sw	s8,32(a0)
40000244:	ac9c0024 	sw	gp,36(a0)
40000248:	ac9d0028 	sw	sp,40(a0)
4000024c:	ac9f002c 	sw	ra,44(a0)
40000250:	34020000 	li	v0,0x0
40000254:	03e00008 	jr	ra
40000258:	00000000 	nop

4000025c <longjmp>:
4000025c:	8c900000 	lw	s0,0(a0)
40000260:	8c910004 	lw	s1,4(a0)
40000264:	8c920008 	lw	s2,8(a0)
40000268:	8c93000c 	lw	s3,12(a0)
4000026c:	8c940010 	lw	s4,16(a0)
40000270:	8c950014 	lw	s5,20(a0)
40000274:	8c960018 	lw	s6,24(a0)
40000278:	8c97001c 	lw	s7,28(a0)
4000027c:	8c9e0020 	lw	s8,32(a0)
40000280:	8c9c0024 	lw	gp,36(a0)
40000284:	8c9d0028 	lw	sp,40(a0)
40000288:	8c9f002c 	lw	ra,44(a0)
4000028c:	34a20000 	ori	v0,a1,0x0
40000290:	03e00008 	jr	ra
40000294:	00000000 	nop

40000298 <_restoreexec>:
40000298:	8c900000 	lw	s0,0(a0)
4000029c:	8c910004 	lw	s1,4(a0)
400002a0:	8c920008 	lw	s2,8(a0)
400002a4:	8c93000c 	lw	s3,12(a0)
400002a8:	8c940010 	lw	s4,16(a0)
400002ac:	8c950014 	lw	s5,20(a0)
400002b0:	8c960018 	lw	s6,24(a0)
400002b4:	8c97001c 	lw	s7,28(a0)
400002b8:	8c9e0020 	lw	s8,32(a0)
400002bc:	8c9c0024 	lw	gp,36(a0)
400002c0:	8c9d0028 	lw	sp,40(a0)
400002c4:	8c9f002c 	lw	ra,44(a0)
400002c8:	341b0001 	li	k1,0x1
400002cc:	3c1af000 	lui	k0,0xf000
400002d0:	375a0030 	ori	k0,k0,0x30
400002d4:	34a20000 	ori	v0,a1,0x0
400002d8:	af5b0000 	sw	k1,0(k0)
400002dc:	03e00008 	jr	ra
400002e0:	00000000 	nop

400002e4 <putchar>:
400002e4:	3c03f000 	lui	v1,0xf000
400002e8:	8c620010 	lw	v0,16(v1)
400002ec:	30420080 	andi	v0,v0,0x80
400002f0:	1040fffd 	beqz	v0,400002e8 <putchar+0x4>
400002f4:	3c02f000 	lui	v0,0xf000
400002f8:	ac4400e0 	sw	a0,224(v0)
400002fc:	03e00008 	jr	ra
40000300:	00000000 	nop

40000304 <dputchar>:
40000304:	3c02f000 	lui	v0,0xf000
40000308:	ac4400d0 	sw	a0,208(v0)
4000030c:	03e00008 	jr	ra
40000310:	00000000 	nop

40000314 <_hardware_init>:
40000314:	03e00008 	jr	ra
40000318:	00000000 	nop

4000031c <_vm_init>:
4000031c:	3c044000 	lui	a0,0x4000
40000320:	27bdffe8 	addiu	sp,sp,-24
40000324:	afbf0014 	sw	ra,20(sp)
40000328:	0c0001e8 	jal	400007a0 <kprintf>
4000032c:	248432e8 	addiu	a0,a0,13032
40000330:	3c044000 	lui	a0,0x4000
40000334:	3c050007 	lui	a1,0x7
40000338:	8fbf0014 	lw	ra,20(sp)
4000033c:	24844f2c 	addiu	a0,a0,20268
40000340:	34a5a120 	ori	a1,a1,0xa120
40000344:	08000836 	j	400020d8 <heapinit>
40000348:	27bd0018 	addiu	sp,sp,24

4000034c <_sched_init>:
4000034c:	3c044000 	lui	a0,0x4000
40000350:	080001e8 	j	400007a0 <kprintf>
40000354:	248432fc 	addiu	a0,a0,13052

40000358 <_timer_init>:
40000358:	27bdffe8 	addiu	sp,sp,-24
4000035c:	3c044000 	lui	a0,0x4000
40000360:	afb00010 	sw	s0,16(sp)
40000364:	24843310 	addiu	a0,a0,13072
40000368:	afbf0014 	sw	ra,20(sp)
4000036c:	0c0001e8 	jal	400007a0 <kprintf>
40000370:	3c104000 	lui	s0,0x4000
40000374:	260528ac 	addiu	a1,s0,10412
40000378:	0c000151 	jal	40000544 <_irq_register>
4000037c:	24040001 	li	a0,1
40000380:	260528ac 	addiu	a1,s0,10412
40000384:	0c000151 	jal	40000544 <_irq_register>
40000388:	24040002 	li	a0,2
4000038c:	8fbf0014 	lw	ra,20(sp)
40000390:	24030001 	li	v1,1
40000394:	3c02f000 	lui	v0,0xf000
40000398:	8fb00010 	lw	s0,16(sp)
4000039c:	ac430020 	sw	v1,32(v0)
400003a0:	03e00008 	jr	ra
400003a4:	27bd0018 	addiu	sp,sp,24

400003a8 <_irq_init>:
400003a8:	3c044000 	lui	a0,0x4000
400003ac:	080001e8 	j	400007a0 <kprintf>
400003b0:	24843324 	addiu	a0,a0,13092

400003b4 <_device_init>:
400003b4:	3c044000 	lui	a0,0x4000
400003b8:	080001e8 	j	400007a0 <kprintf>
400003bc:	24843338 	addiu	a0,a0,13112

400003c0 <_task_init>:
400003c0:	3c044000 	lui	a0,0x4000
400003c4:	080001e8 	j	400007a0 <kprintf>
400003c8:	24843350 	addiu	a0,a0,13136

400003cc <_set_task_sp>:
400003cc:	3084ffff 	andi	a0,a0,0xffff
400003d0:	00041880 	sll	v1,a0,0x2
400003d4:	00041100 	sll	v0,a0,0x4
400003d8:	00621021 	addu	v0,v1,v0
400003dc:	00442023 	subu	a0,v0,a0
400003e0:	3c024000 	lui	v0,0x4000
400003e4:	000420c0 	sll	a0,a0,0x3
400003e8:	24423d5c 	addiu	v0,v0,15708
400003ec:	00822021 	addu	a0,a0,v0
400003f0:	03e00008 	jr	ra
400003f4:	ac850060 	sw	a1,96(a0)

400003f8 <_get_task_sp>:
400003f8:	3084ffff 	andi	a0,a0,0xffff
400003fc:	00041880 	sll	v1,a0,0x2
40000400:	00041100 	sll	v0,a0,0x4
40000404:	00621021 	addu	v0,v1,v0
40000408:	00442023 	subu	a0,v0,a0
4000040c:	3c024000 	lui	v0,0x4000
40000410:	24423d5c 	addiu	v0,v0,15708
40000414:	000420c0 	sll	a0,a0,0x3
40000418:	00822021 	addu	a0,a0,v0
4000041c:	03e00008 	jr	ra
40000420:	8c820060 	lw	v0,96(a0)

40000424 <_set_task_tp>:
40000424:	3084ffff 	andi	a0,a0,0xffff
40000428:	00041880 	sll	v1,a0,0x2
4000042c:	00041100 	sll	v0,a0,0x4
40000430:	00621021 	addu	v0,v1,v0
40000434:	00442023 	subu	a0,v0,a0
40000438:	3c024000 	lui	v0,0x4000
4000043c:	000420c0 	sll	a0,a0,0x3
40000440:	24423d5c 	addiu	v0,v0,15708
40000444:	00822021 	addu	a0,a0,v0
40000448:	03e00008 	jr	ra
4000044c:	ac850064 	sw	a1,100(a0)

40000450 <_cpu_idle>:
40000450:	03e00008 	jr	ra
40000454:	00000000 	nop

40000458 <_read_us>:
40000458:	3c094000 	lui	t1,0x4000
4000045c:	8d223ca8 	lw	v0,15528(t1)
40000460:	27bdffe8 	addiu	sp,sp,-24
40000464:	afbf0014 	sw	ra,20(sp)
40000468:	14400014 	bnez	v0,400004bc <_read_us+0x64>
4000046c:	3c03f000 	lui	v1,0xf000
40000470:	8c620050 	lw	v0,80(v1)
40000474:	3c024000 	lui	v0,0x4000
40000478:	8c423cac 	lw	v0,15532(v0)
4000047c:	8c630050 	lw	v1,80(v1)
40000480:	3c03f000 	lui	v1,0xf000
40000484:	8c6a0050 	lw	t2,80(v1)
40000488:	8c680050 	lw	t0,80(v1)
4000048c:	00402021 	move	a0,v0
40000490:	3c034000 	lui	v1,0x4000
40000494:	01002821 	move	a1,t0
40000498:	24070019 	li	a3,25
4000049c:	00003021 	move	a2,zero
400004a0:	ad2a3ca8 	sw	t2,15528(t1)
400004a4:	ac623cb0 	sw	v0,15536(v1)
400004a8:	0c0005e9 	jal	400017a4 <__udivdi3>
400004ac:	ac683cb4 	sw	t0,15540(v1)
400004b0:	8fbf0014 	lw	ra,20(sp)
400004b4:	03e00008 	jr	ra
400004b8:	27bd0018 	addiu	sp,sp,24
400004bc:	8c630050 	lw	v1,80(v1)
400004c0:	0062102b 	sltu	v0,v1,v0
400004c4:	10400005 	beqz	v0,400004dc <_read_us+0x84>
400004c8:	3c034000 	lui	v1,0x4000
400004cc:	8c623cac 	lw	v0,15532(v1)
400004d0:	24420001 	addiu	v0,v0,1
400004d4:	08000120 	j	40000480 <_read_us+0x28>
400004d8:	ac623cac 	sw	v0,15532(v1)
400004dc:	3c024000 	lui	v0,0x4000
400004e0:	08000120 	j	40000480 <_read_us+0x28>
400004e4:	8c423cac 	lw	v0,15532(v0)

400004e8 <_timer_reset>:
400004e8:	3c02f000 	lui	v0,0xf000
400004ec:	8c430020 	lw	v1,32(v0)
400004f0:	27bdffe8 	addiu	sp,sp,-24
400004f4:	afbf0014 	sw	ra,20(sp)
400004f8:	38630003 	xori	v1,v1,0x3
400004fc:	ac430020 	sw	v1,32(v0)
40000500:	0c000116 	jal	40000458 <_read_us>
40000504:	00000000 	nop
40000508:	3c024000 	lui	v0,0x4000
4000050c:	8c453ca4 	lw	a1,15524(v0)
40000510:	8fbf0014 	lw	ra,20(sp)
40000514:	3c044000 	lui	a0,0x4000
40000518:	00652823 	subu	a1,v1,a1
4000051c:	ac833ca0 	sw	v1,15520(a0)
40000520:	3c044008 	lui	a0,0x4008
40000524:	ac85f060 	sw	a1,-4000(a0)
40000528:	ac433ca4 	sw	v1,15524(v0)
4000052c:	03e00008 	jr	ra
40000530:	27bd0018 	addiu	sp,sp,24

40000534 <_panic>:
40000534:	3c02e000 	lui	v0,0xe000
40000538:	ac400000 	sw	zero,0(v0)
4000053c:	03e00008 	jr	ra
40000540:	00000000 	nop

40000544 <_irq_register>:
40000544:	3c034000 	lui	v1,0x4000
40000548:	24633cb8 	addiu	v1,v1,15544
4000054c:	00001021 	move	v0,zero
40000550:	24080001 	li	t0,1
40000554:	24070020 	li	a3,32
40000558:	00483004 	sllv	a2,t0,v0
4000055c:	00c43024 	and	a2,a2,a0
40000560:	10c00002 	beqz	a2,4000056c <_irq_register+0x28>
40000564:	24420001 	addiu	v0,v0,1
40000568:	ac650000 	sw	a1,0(v1)
4000056c:	1447fffa 	bne	v0,a3,40000558 <_irq_register+0x14>
40000570:	24630004 	addiu	v1,v1,4
40000574:	03e00008 	jr	ra
40000578:	00000000 	nop

4000057c <_irq_handler>:
4000057c:	27bdffe0 	addiu	sp,sp,-32
40000580:	afbf001c 	sw	ra,28(sp)
40000584:	afb20018 	sw	s2,24(sp)
40000588:	afb10014 	sw	s1,20(sp)
4000058c:	afb00010 	sw	s0,16(sp)
40000590:	00a08821 	move	s1,a1
40000594:	0c000116 	jal	40000458 <_read_us>
40000598:	00808021 	move	s0,a0
4000059c:	3c044000 	lui	a0,0x4000
400005a0:	00603021 	move	a2,v1
400005a4:	24843364 	addiu	a0,a0,13156
400005a8:	0c000265 	jal	40000994 <dprintf>
400005ac:	02002821 	move	a1,s0
400005b0:	3c024008 	lui	v0,0x4008
400005b4:	2442f04c 	addiu	v0,v0,-4020
400005b8:	8c430010 	lw	v1,16(v0)
400005bc:	3c124000 	lui	s2,0x4000
400005c0:	26523cb8 	addiu	s2,s2,15544
400005c4:	24630001 	addiu	v1,v1,1
400005c8:	ac430010 	sw	v1,16(v0)
400005cc:	32020001 	andi	v0,s0,0x1
400005d0:	10400006 	beqz	v0,400005ec <_irq_handler+0x70>
400005d4:	00108042 	srl	s0,s0,0x1
400005d8:	8e420000 	lw	v0,0(s2)
400005dc:	10400003 	beqz	v0,400005ec <_irq_handler+0x70>
400005e0:	02202021 	move	a0,s1
400005e4:	0040f809 	jalr	v0
400005e8:	00000000 	nop
400005ec:	1600fff7 	bnez	s0,400005cc <_irq_handler+0x50>
400005f0:	26520004 	addiu	s2,s2,4
400005f4:	8fbf001c 	lw	ra,28(sp)
400005f8:	8fb20018 	lw	s2,24(sp)
400005fc:	8fb10014 	lw	s1,20(sp)
40000600:	8fb00010 	lw	s0,16(sp)
40000604:	03e00008 	jr	ra
40000608:	27bd0020 	addiu	sp,sp,32

4000060c <kitoa.part.0>:
4000060c:	27bdffd0 	addiu	sp,sp,-48
40000610:	24020010 	li	v0,16
40000614:	afb2001c 	sw	s2,28(sp)
40000618:	afb00014 	sw	s0,20(sp)
4000061c:	afbf002c 	sw	ra,44(sp)
40000620:	afb50028 	sw	s5,40(sp)
40000624:	afb40024 	sw	s4,36(sp)
40000628:	afb30020 	sw	s3,32(sp)
4000062c:	afb10018 	sw	s1,24(sp)
40000630:	00a09021 	move	s2,a1
40000634:	10a20036 	beq	a1,v0,40000710 <kitoa.part.0+0x104>
40000638:	00808021 	move	s0,a0
4000063c:	04800047 	bltz	a0,4000075c <kitoa.part.0+0x150>
40000640:	00000000 	nop
40000644:	10800024 	beqz	a0,400006d8 <kitoa.part.0+0xcc>
40000648:	0000a821 	move	s5,zero
4000064c:	3c134000 	lui	s3,0x4000
40000650:	3c144000 	lui	s4,0x4000
40000654:	2411001e 	li	s1,30
40000658:	26733d38 	addiu	s3,s3,15672
4000065c:	0800019b 	j	4000066c <kitoa.part.0+0x60>
40000660:	26943370 	addiu	s4,s4,13168
40000664:	1220000e 	beqz	s1,400006a0 <kitoa.part.0+0x94>
40000668:	00000000 	nop
4000066c:	02002021 	move	a0,s0
40000670:	0c000584 	jal	40001610 <__modsi3>
40000674:	02402821 	move	a1,s2
40000678:	02821021 	addu	v0,s4,v0
4000067c:	90430000 	lbu	v1,0(v0)
40000680:	02711021 	addu	v0,s3,s1
40000684:	02002021 	move	a0,s0
40000688:	02402821 	move	a1,s2
4000068c:	0c00056f 	jal	400015bc <__divsi3>
40000690:	a0430000 	sb	v1,0(v0)
40000694:	00408021 	move	s0,v0
40000698:	1440fff2 	bnez	v0,40000664 <kitoa.part.0+0x58>
4000069c:	2631ffff 	addiu	s1,s1,-1
400006a0:	12a00010 	beqz	s5,400006e4 <kitoa.part.0+0xd8>
400006a4:	02711021 	addu	v0,s3,s1
400006a8:	2403002d 	li	v1,45
400006ac:	a0430000 	sb	v1,0(v0)
400006b0:	8fbf002c 	lw	ra,44(sp)
400006b4:	02711021 	addu	v0,s3,s1
400006b8:	8fb50028 	lw	s5,40(sp)
400006bc:	8fb40024 	lw	s4,36(sp)
400006c0:	8fb30020 	lw	s3,32(sp)
400006c4:	8fb2001c 	lw	s2,28(sp)
400006c8:	8fb10018 	lw	s1,24(sp)
400006cc:	8fb00014 	lw	s0,20(sp)
400006d0:	03e00008 	jr	ra
400006d4:	27bd0030 	addiu	sp,sp,48
400006d8:	3c134000 	lui	s3,0x4000
400006dc:	2411001e 	li	s1,30
400006e0:	26733d38 	addiu	s3,s3,15672
400006e4:	8fbf002c 	lw	ra,44(sp)
400006e8:	26310001 	addiu	s1,s1,1
400006ec:	02711021 	addu	v0,s3,s1
400006f0:	8fb50028 	lw	s5,40(sp)
400006f4:	8fb40024 	lw	s4,36(sp)
400006f8:	8fb30020 	lw	s3,32(sp)
400006fc:	8fb2001c 	lw	s2,28(sp)
40000700:	8fb10018 	lw	s1,24(sp)
40000704:	8fb00014 	lw	s0,20(sp)
40000708:	03e00008 	jr	ra
4000070c:	27bd0030 	addiu	sp,sp,48
40000710:	1080001f 	beqz	a0,40000790 <kitoa.part.0+0x184>
40000714:	3c144000 	lui	s4,0x4000
40000718:	3c134000 	lui	s3,0x4000
4000071c:	2411001e 	li	s1,30
40000720:	26733d38 	addiu	s3,s3,15672
40000724:	080001cd 	j	40000734 <kitoa.part.0+0x128>
40000728:	26943370 	addiu	s4,s4,13168
4000072c:	1220000e 	beqz	s1,40000768 <kitoa.part.0+0x15c>
40000730:	8fbf002c 	lw	ra,44(sp)
40000734:	3202000f 	andi	v0,s0,0xf
40000738:	02821021 	addu	v0,s4,v0
4000073c:	90430000 	lbu	v1,0(v0)
40000740:	00108102 	srl	s0,s0,0x4
40000744:	02711021 	addu	v0,s3,s1
40000748:	a0430000 	sb	v1,0(v0)
4000074c:	1600fff7 	bnez	s0,4000072c <kitoa.part.0+0x120>
40000750:	2631ffff 	addiu	s1,s1,-1
40000754:	080001ba 	j	400006e8 <kitoa.part.0+0xdc>
40000758:	8fbf002c 	lw	ra,44(sp)
4000075c:	00048023 	negu	s0,a0
40000760:	08000193 	j	4000064c <kitoa.part.0+0x40>
40000764:	24150001 	li	s5,1
40000768:	24110001 	li	s1,1
4000076c:	02711021 	addu	v0,s3,s1
40000770:	8fb50028 	lw	s5,40(sp)
40000774:	8fb40024 	lw	s4,36(sp)
40000778:	8fb30020 	lw	s3,32(sp)
4000077c:	8fb2001c 	lw	s2,28(sp)
40000780:	8fb10018 	lw	s1,24(sp)
40000784:	8fb00014 	lw	s0,20(sp)
40000788:	03e00008 	jr	ra
4000078c:	27bd0030 	addiu	sp,sp,48
40000790:	3c134000 	lui	s3,0x4000
40000794:	2411001f 	li	s1,31
40000798:	080001ac 	j	400006b0 <kitoa.part.0+0xa4>
4000079c:	26733d38 	addiu	s3,s3,15672

400007a0 <kprintf>:
400007a0:	27bdffc0 	addiu	sp,sp,-64
400007a4:	27a20044 	addiu	v0,sp,68
400007a8:	afbe0038 	sw	s8,56(sp)
400007ac:	afb60030 	sw	s6,48(sp)
400007b0:	afb40028 	sw	s4,40(sp)
400007b4:	afb30024 	sw	s3,36(sp)
400007b8:	afb20020 	sw	s2,32(sp)
400007bc:	afb1001c 	sw	s1,28(sp)
400007c0:	afb00018 	sw	s0,24(sp)
400007c4:	afbf003c 	sw	ra,60(sp)
400007c8:	afb70034 	sw	s7,52(sp)
400007cc:	afb5002c 	sw	s5,44(sp)
400007d0:	afa50044 	sw	a1,68(sp)
400007d4:	afa60048 	sw	a2,72(sp)
400007d8:	afa7004c 	sw	a3,76(sp)
400007dc:	00808021 	move	s0,a0
400007e0:	afa20010 	sw	v0,16(sp)
400007e4:	0040f021 	move	s8,v0
400007e8:	24110025 	li	s1,37
400007ec:	24120064 	li	s2,100
400007f0:	3c144000 	lui	s4,0x4000
400007f4:	24130073 	li	s3,115
400007f8:	3c164000 	lui	s6,0x4000
400007fc:	82040000 	lb	a0,0(s0)
40000800:	10800008 	beqz	a0,40000824 <kprintf+0x84>
40000804:	8fbf003c 	lw	ra,60(sp)
40000808:	10910012 	beq	a0,s1,40000854 <kprintf+0xb4>
4000080c:	00000000 	nop
40000810:	0c0000b9 	jal	400002e4 <putchar>
40000814:	26100001 	addiu	s0,s0,1
40000818:	82040000 	lb	a0,0(s0)
4000081c:	1480fffa 	bnez	a0,40000808 <kprintf+0x68>
40000820:	8fbf003c 	lw	ra,60(sp)
40000824:	00001021 	move	v0,zero
40000828:	8fbe0038 	lw	s8,56(sp)
4000082c:	8fb70034 	lw	s7,52(sp)
40000830:	8fb60030 	lw	s6,48(sp)
40000834:	8fb5002c 	lw	s5,44(sp)
40000838:	8fb40028 	lw	s4,40(sp)
4000083c:	8fb30024 	lw	s3,36(sp)
40000840:	8fb20020 	lw	s2,32(sp)
40000844:	8fb1001c 	lw	s1,28(sp)
40000848:	8fb00018 	lw	s0,24(sp)
4000084c:	03e00008 	jr	ra
40000850:	27bd0040 	addiu	sp,sp,64
40000854:	82020001 	lb	v0,1(s0)
40000858:	1052002c 	beq	v0,s2,4000090c <kprintf+0x16c>
4000085c:	28430065 	slti	v1,v0,101
40000860:	10600009 	beqz	v1,40000888 <kprintf+0xe8>
40000864:	00000000 	nop
40000868:	1051003c 	beq	v0,s1,4000095c <kprintf+0x1bc>
4000086c:	24030063 	li	v1,99
40000870:	10430034 	beq	v0,v1,40000944 <kprintf+0x1a4>
40000874:	00000000 	nop
40000878:	0c0000b9 	jal	400002e4 <putchar>
4000087c:	2404003f 	li	a0,63
40000880:	080001ff 	j	400007fc <kprintf+0x5c>
40000884:	26100002 	addiu	s0,s0,2
40000888:	10530011 	beq	v0,s3,400008d0 <kprintf+0x130>
4000088c:	24030078 	li	v1,120
40000890:	1443fff9 	bne	v0,v1,40000878 <kprintf+0xd8>
40000894:	27d50004 	addiu	s5,s8,4
40000898:	8fc40000 	lw	a0,0(s8)
4000089c:	14800033 	bnez	a0,4000096c <kprintf+0x1cc>
400008a0:	26973384 	addiu	s7,s4,13188
400008a4:	82e40000 	lb	a0,0(s7)
400008a8:	1080fff5 	beqz	a0,40000880 <kprintf+0xe0>
400008ac:	02a0f021 	move	s8,s5
400008b0:	0c0000b9 	jal	400002e4 <putchar>
400008b4:	26f70001 	addiu	s7,s7,1
400008b8:	82e40000 	lb	a0,0(s7)
400008bc:	1480fffc 	bnez	a0,400008b0 <kprintf+0x110>
400008c0:	00000000 	nop
400008c4:	02a0f021 	move	s8,s5
400008c8:	080001ff 	j	400007fc <kprintf+0x5c>
400008cc:	26100002 	addiu	s0,s0,2
400008d0:	8fd50000 	lw	s5,0(s8)
400008d4:	12a0002d 	beqz	s5,4000098c <kprintf+0x1ec>
400008d8:	27d70004 	addiu	s7,s8,4
400008dc:	82a40000 	lb	a0,0(s5)
400008e0:	1080ffe7 	beqz	a0,40000880 <kprintf+0xe0>
400008e4:	02e0f021 	move	s8,s7
400008e8:	26b50001 	addiu	s5,s5,1
400008ec:	0c0000b9 	jal	400002e4 <putchar>
400008f0:	26b50001 	addiu	s5,s5,1
400008f4:	82a4ffff 	lb	a0,-1(s5)
400008f8:	1480fffc 	bnez	a0,400008ec <kprintf+0x14c>
400008fc:	00000000 	nop
40000900:	02e0f021 	move	s8,s7
40000904:	080001ff 	j	400007fc <kprintf+0x5c>
40000908:	26100002 	addiu	s0,s0,2
4000090c:	8fc40000 	lw	a0,0(s8)
40000910:	27d50004 	addiu	s5,s8,4
40000914:	14800019 	bnez	a0,4000097c <kprintf+0x1dc>
40000918:	26973384 	addiu	s7,s4,13188
4000091c:	82e40000 	lb	a0,0(s7)
40000920:	1080ffd7 	beqz	a0,40000880 <kprintf+0xe0>
40000924:	02a0f021 	move	s8,s5
40000928:	0c0000b9 	jal	400002e4 <putchar>
4000092c:	26f70001 	addiu	s7,s7,1
40000930:	82e40000 	lb	a0,0(s7)
40000934:	1480fffc 	bnez	a0,40000928 <kprintf+0x188>
40000938:	00000000 	nop
4000093c:	08000232 	j	400008c8 <kprintf+0x128>
40000940:	02a0f021 	move	s8,s5
40000944:	83c40003 	lb	a0,3(s8)
40000948:	26100002 	addiu	s0,s0,2
4000094c:	0c0000b9 	jal	400002e4 <putchar>
40000950:	27de0004 	addiu	s8,s8,4
40000954:	08000200 	j	40000800 <kprintf+0x60>
40000958:	82040000 	lb	a0,0(s0)
4000095c:	0c0000b9 	jal	400002e4 <putchar>
40000960:	24040025 	li	a0,37
40000964:	080001ff 	j	400007fc <kprintf+0x5c>
40000968:	26100002 	addiu	s0,s0,2
4000096c:	0c000183 	jal	4000060c <kitoa.part.0>
40000970:	24050010 	li	a1,16
40000974:	08000229 	j	400008a4 <kprintf+0x104>
40000978:	0040b821 	move	s7,v0
4000097c:	0c000183 	jal	4000060c <kitoa.part.0>
40000980:	2405000a 	li	a1,10
40000984:	08000247 	j	4000091c <kprintf+0x17c>
40000988:	0040b821 	move	s7,v0
4000098c:	08000237 	j	400008dc <kprintf+0x13c>
40000990:	26d53388 	addiu	s5,s6,13192

40000994 <dprintf>:
40000994:	27bdffc0 	addiu	sp,sp,-64
40000998:	afb00018 	sw	s0,24(sp)
4000099c:	00808021 	move	s0,a0
400009a0:	00002021 	move	a0,zero
400009a4:	afbe0038 	sw	s8,56(sp)
400009a8:	afb60030 	sw	s6,48(sp)
400009ac:	afb40028 	sw	s4,40(sp)
400009b0:	afb30024 	sw	s3,36(sp)
400009b4:	afb20020 	sw	s2,32(sp)
400009b8:	afb1001c 	sw	s1,28(sp)
400009bc:	afbf003c 	sw	ra,60(sp)
400009c0:	afb70034 	sw	s7,52(sp)
400009c4:	afb5002c 	sw	s5,44(sp)
400009c8:	afa50044 	sw	a1,68(sp)
400009cc:	afa60048 	sw	a2,72(sp)
400009d0:	afa7004c 	sw	a3,76(sp)
400009d4:	0c000082 	jal	40000208 <_interrupt_set>
400009d8:	27be0044 	addiu	s8,sp,68
400009dc:	afa20010 	sw	v0,16(sp)
400009e0:	afbe0014 	sw	s8,20(sp)
400009e4:	24110025 	li	s1,37
400009e8:	24120064 	li	s2,100
400009ec:	3c144000 	lui	s4,0x4000
400009f0:	24130073 	li	s3,115
400009f4:	3c164000 	lui	s6,0x4000
400009f8:	82040000 	lb	a0,0(s0)
400009fc:	10800008 	beqz	a0,40000a20 <dprintf+0x8c>
40000a00:	00000000 	nop
40000a04:	10910016 	beq	a0,s1,40000a60 <dprintf+0xcc>
40000a08:	00000000 	nop
40000a0c:	0c0000c1 	jal	40000304 <dputchar>
40000a10:	26100001 	addiu	s0,s0,1
40000a14:	82040000 	lb	a0,0(s0)
40000a18:	1480fffa 	bnez	a0,40000a04 <dprintf+0x70>
40000a1c:	00000000 	nop
40000a20:	8fa40010 	lw	a0,16(sp)
40000a24:	0c000082 	jal	40000208 <_interrupt_set>
40000a28:	00000000 	nop
40000a2c:	8fbf003c 	lw	ra,60(sp)
40000a30:	00001021 	move	v0,zero
40000a34:	8fbe0038 	lw	s8,56(sp)
40000a38:	8fb70034 	lw	s7,52(sp)
40000a3c:	8fb60030 	lw	s6,48(sp)
40000a40:	8fb5002c 	lw	s5,44(sp)
40000a44:	8fb40028 	lw	s4,40(sp)
40000a48:	8fb30024 	lw	s3,36(sp)
40000a4c:	8fb20020 	lw	s2,32(sp)
40000a50:	8fb1001c 	lw	s1,28(sp)
40000a54:	8fb00018 	lw	s0,24(sp)
40000a58:	03e00008 	jr	ra
40000a5c:	27bd0040 	addiu	sp,sp,64
40000a60:	82020001 	lb	v0,1(s0)
40000a64:	1052002c 	beq	v0,s2,40000b18 <dprintf+0x184>
40000a68:	28430065 	slti	v1,v0,101
40000a6c:	10600009 	beqz	v1,40000a94 <dprintf+0x100>
40000a70:	00000000 	nop
40000a74:	1051003c 	beq	v0,s1,40000b68 <dprintf+0x1d4>
40000a78:	24030063 	li	v1,99
40000a7c:	10430034 	beq	v0,v1,40000b50 <dprintf+0x1bc>
40000a80:	00000000 	nop
40000a84:	0c0000c1 	jal	40000304 <dputchar>
40000a88:	2404003f 	li	a0,63
40000a8c:	0800027e 	j	400009f8 <dprintf+0x64>
40000a90:	26100002 	addiu	s0,s0,2
40000a94:	10530011 	beq	v0,s3,40000adc <dprintf+0x148>
40000a98:	24030078 	li	v1,120
40000a9c:	1443fff9 	bne	v0,v1,40000a84 <dprintf+0xf0>
40000aa0:	27d50004 	addiu	s5,s8,4
40000aa4:	8fc40000 	lw	a0,0(s8)
40000aa8:	14800033 	bnez	a0,40000b78 <dprintf+0x1e4>
40000aac:	26973384 	addiu	s7,s4,13188
40000ab0:	82e40000 	lb	a0,0(s7)
40000ab4:	1080fff5 	beqz	a0,40000a8c <dprintf+0xf8>
40000ab8:	02a0f021 	move	s8,s5
40000abc:	0c0000c1 	jal	40000304 <dputchar>
40000ac0:	26f70001 	addiu	s7,s7,1
40000ac4:	82e40000 	lb	a0,0(s7)
40000ac8:	1480fffc 	bnez	a0,40000abc <dprintf+0x128>
40000acc:	00000000 	nop
40000ad0:	02a0f021 	move	s8,s5
40000ad4:	0800027e 	j	400009f8 <dprintf+0x64>
40000ad8:	26100002 	addiu	s0,s0,2
40000adc:	8fd50000 	lw	s5,0(s8)
40000ae0:	12a0002d 	beqz	s5,40000b98 <dprintf+0x204>
40000ae4:	27d70004 	addiu	s7,s8,4
40000ae8:	82a40000 	lb	a0,0(s5)
40000aec:	1080ffe7 	beqz	a0,40000a8c <dprintf+0xf8>
40000af0:	02e0f021 	move	s8,s7
40000af4:	26b50001 	addiu	s5,s5,1
40000af8:	0c0000c1 	jal	40000304 <dputchar>
40000afc:	26b50001 	addiu	s5,s5,1
40000b00:	82a4ffff 	lb	a0,-1(s5)
40000b04:	1480fffc 	bnez	a0,40000af8 <dprintf+0x164>
40000b08:	00000000 	nop
40000b0c:	02e0f021 	move	s8,s7
40000b10:	0800027e 	j	400009f8 <dprintf+0x64>
40000b14:	26100002 	addiu	s0,s0,2
40000b18:	8fc40000 	lw	a0,0(s8)
40000b1c:	27d50004 	addiu	s5,s8,4
40000b20:	14800019 	bnez	a0,40000b88 <dprintf+0x1f4>
40000b24:	26973384 	addiu	s7,s4,13188
40000b28:	82e40000 	lb	a0,0(s7)
40000b2c:	1080ffd7 	beqz	a0,40000a8c <dprintf+0xf8>
40000b30:	02a0f021 	move	s8,s5
40000b34:	0c0000c1 	jal	40000304 <dputchar>
40000b38:	26f70001 	addiu	s7,s7,1
40000b3c:	82e40000 	lb	a0,0(s7)
40000b40:	1480fffc 	bnez	a0,40000b34 <dprintf+0x1a0>
40000b44:	00000000 	nop
40000b48:	080002b5 	j	40000ad4 <dprintf+0x140>
40000b4c:	02a0f021 	move	s8,s5
40000b50:	83c40003 	lb	a0,3(s8)
40000b54:	26100002 	addiu	s0,s0,2
40000b58:	0c0000b9 	jal	400002e4 <putchar>
40000b5c:	27de0004 	addiu	s8,s8,4
40000b60:	0800027f 	j	400009fc <dprintf+0x68>
40000b64:	82040000 	lb	a0,0(s0)
40000b68:	0c0000c1 	jal	40000304 <dputchar>
40000b6c:	24040025 	li	a0,37
40000b70:	0800027e 	j	400009f8 <dprintf+0x64>
40000b74:	26100002 	addiu	s0,s0,2
40000b78:	0c000183 	jal	4000060c <kitoa.part.0>
40000b7c:	24050010 	li	a1,16
40000b80:	080002ac 	j	40000ab0 <dprintf+0x11c>
40000b84:	0040b821 	move	s7,v0
40000b88:	0c000183 	jal	4000060c <kitoa.part.0>
40000b8c:	2405000a 	li	a1,10
40000b90:	080002ca 	j	40000b28 <dprintf+0x194>
40000b94:	0040b821 	move	s7,v0
40000b98:	080002ba 	j	40000ae8 <dprintf+0x154>
40000b9c:	26d53388 	addiu	s5,s6,13192

40000ba0 <printchar>:
40000ba0:	10800007 	beqz	a0,40000bc0 <printchar+0x20>
40000ba4:	00000000 	nop
40000ba8:	8c820000 	lw	v0,0(a0)
40000bac:	a0450000 	sb	a1,0(v0)
40000bb0:	8c820000 	lw	v0,0(a0)
40000bb4:	24420001 	addiu	v0,v0,1
40000bb8:	03e00008 	jr	ra
40000bbc:	ac820000 	sw	v0,0(a0)
40000bc0:	080000b9 	j	400002e4 <putchar>
40000bc4:	00a02021 	move	a0,a1

40000bc8 <prints>:
40000bc8:	27bdffd8 	addiu	sp,sp,-40
40000bcc:	afb40020 	sw	s4,32(sp)
40000bd0:	afb20018 	sw	s2,24(sp)
40000bd4:	afb10014 	sw	s1,20(sp)
40000bd8:	afb00010 	sw	s0,16(sp)
40000bdc:	afbf0024 	sw	ra,36(sp)
40000be0:	afb3001c 	sw	s3,28(sp)
40000be4:	00c09021 	move	s2,a2
40000be8:	00808021 	move	s0,a0
40000bec:	00a08821 	move	s1,a1
40000bf0:	18c00012 	blez	a2,40000c3c <prints+0x74>
40000bf4:	24140020 	li	s4,32
40000bf8:	80a20000 	lb	v0,0(a1)
40000bfc:	10400039 	beqz	v0,40000ce4 <prints+0x11c>
40000c00:	00001021 	move	v0,zero
40000c04:	24420001 	addiu	v0,v0,1
40000c08:	02221821 	addu	v1,s1,v0
40000c0c:	80630000 	lb	v1,0(v1)
40000c10:	1460fffd 	bnez	v1,40000c08 <prints+0x40>
40000c14:	24420001 	addiu	v0,v0,1
40000c18:	2442ffff 	addiu	v0,v0,-1
40000c1c:	0052182a 	slt	v1,v0,s2
40000c20:	14600002 	bnez	v1,40000c2c <prints+0x64>
40000c24:	02429023 	subu	s2,s2,v0
40000c28:	00009021 	move	s2,zero
40000c2c:	30e20002 	andi	v0,a3,0x2
40000c30:	10400002 	beqz	v0,40000c3c <prints+0x74>
40000c34:	24140020 	li	s4,32
40000c38:	24140030 	li	s4,48
40000c3c:	30e70001 	andi	a3,a3,0x1
40000c40:	14e0000c 	bnez	a3,40000c74 <prints+0xac>
40000c44:	00009821 	move	s3,zero
40000c48:	1a40000a 	blez	s2,40000c74 <prints+0xac>
40000c4c:	00e09821 	move	s3,a3
40000c50:	02409821 	move	s3,s2
40000c54:	2673ffff 	addiu	s3,s3,-1
40000c58:	02002021 	move	a0,s0
40000c5c:	0c0002e8 	jal	40000ba0 <printchar>
40000c60:	02802821 	move	a1,s4
40000c64:	1660fffc 	bnez	s3,40000c58 <prints+0x90>
40000c68:	2673ffff 	addiu	s3,s3,-1
40000c6c:	02409821 	move	s3,s2
40000c70:	00009021 	move	s2,zero
40000c74:	82250000 	lb	a1,0(s1)
40000c78:	10a00008 	beqz	a1,40000c9c <prints+0xd4>
40000c7c:	02338823 	subu	s1,s1,s3
40000c80:	02002021 	move	a0,s0
40000c84:	0c0002e8 	jal	40000ba0 <printchar>
40000c88:	26730001 	addiu	s3,s3,1
40000c8c:	02331021 	addu	v0,s1,s3
40000c90:	80450000 	lb	a1,0(v0)
40000c94:	14a0fffb 	bnez	a1,40000c84 <prints+0xbc>
40000c98:	02002021 	move	a0,s0
40000c9c:	1a400008 	blez	s2,40000cc0 <prints+0xf8>
40000ca0:	02408821 	move	s1,s2
40000ca4:	2631ffff 	addiu	s1,s1,-1
40000ca8:	02002021 	move	a0,s0
40000cac:	0c0002e8 	jal	40000ba0 <printchar>
40000cb0:	02802821 	move	a1,s4
40000cb4:	1620fffc 	bnez	s1,40000ca8 <prints+0xe0>
40000cb8:	2631ffff 	addiu	s1,s1,-1
40000cbc:	02729821 	addu	s3,s3,s2
40000cc0:	8fbf0024 	lw	ra,36(sp)
40000cc4:	02601021 	move	v0,s3
40000cc8:	8fb40020 	lw	s4,32(sp)
40000ccc:	8fb3001c 	lw	s3,28(sp)
40000cd0:	8fb20018 	lw	s2,24(sp)
40000cd4:	8fb10014 	lw	s1,20(sp)
40000cd8:	8fb00010 	lw	s0,16(sp)
40000cdc:	03e00008 	jr	ra
40000ce0:	27bd0028 	addiu	sp,sp,40
40000ce4:	0800030b 	j	40000c2c <prints+0x64>
40000ce8:	02429023 	subu	s2,s2,v0

40000cec <printi>:
40000cec:	27bdffa8 	addiu	sp,sp,-88
40000cf0:	afb6004c 	sw	s6,76(sp)
40000cf4:	afb30040 	sw	s3,64(sp)
40000cf8:	afb2003c 	sw	s2,60(sp)
40000cfc:	afb10038 	sw	s1,56(sp)
40000d00:	afb00034 	sw	s0,52(sp)
40000d04:	afbf0054 	sw	ra,84(sp)
40000d08:	afb70050 	sw	s7,80(sp)
40000d0c:	afb50048 	sw	s5,72(sp)
40000d10:	afb40044 	sw	s4,68(sp)
40000d14:	00a08021 	move	s0,a1
40000d18:	00808821 	move	s1,a0
40000d1c:	00c09021 	move	s2,a2
40000d20:	8fb60068 	lw	s6,104(sp)
40000d24:	10a00040 	beqz	a1,40000e28 <printi+0x13c>
40000d28:	8fb3006c 	lw	s3,108(sp)
40000d2c:	14e00032 	bnez	a3,40000df8 <printi+0x10c>
40000d30:	0000b821 	move	s7,zero
40000d34:	a3a0002d 	sb	zero,45(sp)
40000d38:	12000011 	beqz	s0,40000d80 <printi+0x94>
40000d3c:	27b4002d 	addiu	s4,sp,45
40000d40:	8fb50070 	lw	s5,112(sp)
40000d44:	26b5ffc6 	addiu	s5,s5,-58
40000d48:	02002021 	move	a0,s0
40000d4c:	0c00059a 	jal	40001668 <__umodsi3>
40000d50:	02402821 	move	a1,s2
40000d54:	2843000a 	slti	v1,v0,10
40000d58:	2694ffff 	addiu	s4,s4,-1
40000d5c:	02002021 	move	a0,s0
40000d60:	14600002 	bnez	v1,40000d6c <printi+0x80>
40000d64:	02402821 	move	a1,s2
40000d68:	00551021 	addu	v0,v0,s5
40000d6c:	24420030 	addiu	v0,v0,48
40000d70:	0c000598 	jal	40001660 <__udivsi3>
40000d74:	a2820000 	sb	v0,0(s4)
40000d78:	1440fff3 	bnez	v0,40000d48 <printi+0x5c>
40000d7c:	00408021 	move	s0,v0
40000d80:	16e00012 	bnez	s7,40000dcc <printi+0xe0>
40000d84:	00008021 	move	s0,zero
40000d88:	02202021 	move	a0,s1
40000d8c:	02802821 	move	a1,s4
40000d90:	02c03021 	move	a2,s6
40000d94:	0c0002f2 	jal	40000bc8 <prints>
40000d98:	02603821 	move	a3,s3
40000d9c:	8fbf0054 	lw	ra,84(sp)
40000da0:	00501021 	addu	v0,v0,s0
40000da4:	8fb70050 	lw	s7,80(sp)
40000da8:	8fb6004c 	lw	s6,76(sp)
40000dac:	8fb50048 	lw	s5,72(sp)
40000db0:	8fb40044 	lw	s4,68(sp)
40000db4:	8fb30040 	lw	s3,64(sp)
40000db8:	8fb2003c 	lw	s2,60(sp)
40000dbc:	8fb10038 	lw	s1,56(sp)
40000dc0:	8fb00034 	lw	s0,52(sp)
40000dc4:	03e00008 	jr	ra
40000dc8:	27bd0058 	addiu	sp,sp,88
40000dcc:	12c00012 	beqz	s6,40000e18 <printi+0x12c>
40000dd0:	2402002d 	li	v0,45
40000dd4:	32620002 	andi	v0,s3,0x2
40000dd8:	1040000f 	beqz	v0,40000e18 <printi+0x12c>
40000ddc:	2402002d 	li	v0,45
40000de0:	02202021 	move	a0,s1
40000de4:	0c0002e8 	jal	40000ba0 <printchar>
40000de8:	2405002d 	li	a1,45
40000dec:	26d6ffff 	addiu	s6,s6,-1
40000df0:	08000362 	j	40000d88 <printi+0x9c>
40000df4:	24100001 	li	s0,1
40000df8:	2402000a 	li	v0,10
40000dfc:	14c2ffcd 	bne	a2,v0,40000d34 <printi+0x48>
40000e00:	00000000 	nop
40000e04:	04a1ffcb 	bgez	a1,40000d34 <printi+0x48>
40000e08:	00000000 	nop
40000e0c:	00058023 	negu	s0,a1
40000e10:	0800034d 	j	40000d34 <printi+0x48>
40000e14:	24170001 	li	s7,1
40000e18:	a282ffff 	sb	v0,-1(s4)
40000e1c:	00008021 	move	s0,zero
40000e20:	08000362 	j	40000d88 <printi+0x9c>
40000e24:	2694ffff 	addiu	s4,s4,-1
40000e28:	27a50010 	addiu	a1,sp,16
40000e2c:	02c03021 	move	a2,s6
40000e30:	02603821 	move	a3,s3
40000e34:	24020030 	li	v0,48
40000e38:	a3a20010 	sb	v0,16(sp)
40000e3c:	0c0002f2 	jal	40000bc8 <prints>
40000e40:	a3a00011 	sb	zero,17(sp)
40000e44:	8fbf0054 	lw	ra,84(sp)
40000e48:	8fb70050 	lw	s7,80(sp)
40000e4c:	8fb6004c 	lw	s6,76(sp)
40000e50:	8fb50048 	lw	s5,72(sp)
40000e54:	8fb40044 	lw	s4,68(sp)
40000e58:	8fb30040 	lw	s3,64(sp)
40000e5c:	8fb2003c 	lw	s2,60(sp)
40000e60:	8fb10038 	lw	s1,56(sp)
40000e64:	8fb00034 	lw	s0,52(sp)
40000e68:	03e00008 	jr	ra
40000e6c:	27bd0058 	addiu	sp,sp,88

40000e70 <strncpy>:
40000e70:	18c0000e 	blez	a2,40000eac <strncpy+0x3c>
40000e74:	00801021 	move	v0,a0
40000e78:	80a40000 	lb	a0,0(a1)
40000e7c:	24430001 	addiu	v1,v0,1
40000e80:	10800017 	beqz	a0,40000ee0 <strncpy+0x70>
40000e84:	a0440000 	sb	a0,0(v0)
40000e88:	080003a8 	j	40000ea0 <strncpy+0x30>
40000e8c:	00002021 	move	a0,zero
40000e90:	80e70000 	lb	a3,0(a3)
40000e94:	a0670000 	sb	a3,0(v1)
40000e98:	10e00006 	beqz	a3,40000eb4 <strncpy+0x44>
40000e9c:	24630001 	addiu	v1,v1,1
40000ea0:	24840001 	addiu	a0,a0,1
40000ea4:	1486fffa 	bne	a0,a2,40000e90 <strncpy+0x20>
40000ea8:	00a43821 	addu	a3,a1,a0
40000eac:	03e00008 	jr	ra
40000eb0:	00000000 	nop
40000eb4:	24840001 	addiu	a0,a0,1
40000eb8:	0086282a 	slt	a1,a0,a2
40000ebc:	10a0fffb 	beqz	a1,40000eac <strncpy+0x3c>
40000ec0:	00663021 	addu	a2,v1,a2
40000ec4:	00c42023 	subu	a0,a2,a0
40000ec8:	a0600000 	sb	zero,0(v1)
40000ecc:	24630001 	addiu	v1,v1,1
40000ed0:	1464fffd 	bne	v1,a0,40000ec8 <strncpy+0x58>
40000ed4:	00000000 	nop
40000ed8:	03e00008 	jr	ra
40000edc:	00000000 	nop
40000ee0:	080003ae 	j	40000eb8 <strncpy+0x48>
40000ee4:	24040001 	li	a0,1

40000ee8 <memset>:
40000ee8:	10c00007 	beqz	a2,40000f08 <memset+0x20>
40000eec:	00801021 	move	v0,a0
40000ef0:	30a500ff 	andi	a1,a1,0xff
40000ef4:	00801821 	move	v1,a0
40000ef8:	24c6ffff 	addiu	a2,a2,-1
40000efc:	a0650000 	sb	a1,0(v1)
40000f00:	14c0fffd 	bnez	a2,40000ef8 <memset+0x10>
40000f04:	24630001 	addiu	v1,v1,1
40000f08:	03e00008 	jr	ra
40000f0c:	00000000 	nop

40000f10 <itoa>:
40000f10:	24c2fffe 	addiu	v0,a2,-2
40000f14:	27bdffd0 	addiu	sp,sp,-48
40000f18:	2c420023 	sltiu	v0,v0,35
40000f1c:	afb50028 	sw	s5,40(sp)
40000f20:	afb30020 	sw	s3,32(sp)
40000f24:	afb10018 	sw	s1,24(sp)
40000f28:	afbf002c 	sw	ra,44(sp)
40000f2c:	afb40024 	sw	s4,36(sp)
40000f30:	afb2001c 	sw	s2,28(sp)
40000f34:	afb00014 	sw	s0,20(sp)
40000f38:	00c09821 	move	s3,a2
40000f3c:	00808821 	move	s1,a0
40000f40:	1040002e 	beqz	v0,40000ffc <itoa+0xec>
40000f44:	00a0a821 	move	s5,a1
40000f48:	3c144000 	lui	s4,0x4000
40000f4c:	00a09021 	move	s2,a1
40000f50:	080003d8 	j	40000f60 <itoa+0x50>
40000f54:	26943390 	addiu	s4,s4,13200
40000f58:	00609021 	move	s2,v1
40000f5c:	02008821 	move	s1,s0
40000f60:	02202021 	move	a0,s1
40000f64:	0c00056f 	jal	400015bc <__divsi3>
40000f68:	02602821 	move	a1,s3
40000f6c:	00402821 	move	a1,v0
40000f70:	02602021 	move	a0,s3
40000f74:	0c000543 	jal	4000150c <__mulsi3>
40000f78:	00408021 	move	s0,v0
40000f7c:	02221023 	subu	v0,s1,v0
40000f80:	02821021 	addu	v0,s4,v0
40000f84:	90420023 	lbu	v0,35(v0)
40000f88:	26430001 	addiu	v1,s2,1
40000f8c:	1600fff2 	bnez	s0,40000f58 <itoa+0x48>
40000f90:	a2420000 	sb	v0,0(s2)
40000f94:	06200024 	bltz	s1,40001028 <itoa+0x118>
40000f98:	2402002d 	li	v0,45
40000f9c:	2462ffff 	addiu	v0,v1,-1
40000fa0:	02a2202b 	sltu	a0,s5,v0
40000fa4:	1080000b 	beqz	a0,40000fd4 <itoa+0xc4>
40000fa8:	a0600000 	sb	zero,0(v1)
40000fac:	02a01821 	move	v1,s5
40000fb0:	80440000 	lb	a0,0(v0)
40000fb4:	80650000 	lb	a1,0(v1)
40000fb8:	a0450000 	sb	a1,0(v0)
40000fbc:	a0640000 	sb	a0,0(v1)
40000fc0:	2442ffff 	addiu	v0,v0,-1
40000fc4:	24630001 	addiu	v1,v1,1
40000fc8:	0062202b 	sltu	a0,v1,v0
40000fcc:	1480fff8 	bnez	a0,40000fb0 <itoa+0xa0>
40000fd0:	00000000 	nop
40000fd4:	8fbf002c 	lw	ra,44(sp)
40000fd8:	02a01021 	move	v0,s5
40000fdc:	8fb40024 	lw	s4,36(sp)
40000fe0:	8fb50028 	lw	s5,40(sp)
40000fe4:	8fb30020 	lw	s3,32(sp)
40000fe8:	8fb2001c 	lw	s2,28(sp)
40000fec:	8fb10018 	lw	s1,24(sp)
40000ff0:	8fb00014 	lw	s0,20(sp)
40000ff4:	03e00008 	jr	ra
40000ff8:	27bd0030 	addiu	sp,sp,48
40000ffc:	a0a00000 	sb	zero,0(a1)
40001000:	8fbf002c 	lw	ra,44(sp)
40001004:	02a01021 	move	v0,s5
40001008:	8fb40024 	lw	s4,36(sp)
4000100c:	8fb50028 	lw	s5,40(sp)
40001010:	8fb30020 	lw	s3,32(sp)
40001014:	8fb2001c 	lw	s2,28(sp)
40001018:	8fb10018 	lw	s1,24(sp)
4000101c:	8fb00014 	lw	s0,20(sp)
40001020:	03e00008 	jr	ra
40001024:	27bd0030 	addiu	sp,sp,48
40001028:	a2420001 	sb	v0,1(s2)
4000102c:	080003e7 	j	40000f9c <itoa+0x8c>
40001030:	26430002 	addiu	v1,s2,2

40001034 <print>:
40001034:	27bdff80 	addiu	sp,sp,-128
40001038:	afb20060 	sw	s2,96(sp)
4000103c:	afb1005c 	sw	s1,92(sp)
40001040:	afbf007c 	sw	ra,124(sp)
40001044:	afbe0078 	sw	s8,120(sp)
40001048:	afb70074 	sw	s7,116(sp)
4000104c:	afb60070 	sw	s6,112(sp)
40001050:	afb5006c 	sw	s5,108(sp)
40001054:	afb40068 	sw	s4,104(sp)
40001058:	afb30064 	sw	s3,100(sp)
4000105c:	afb00058 	sw	s0,88(sp)
40001060:	80a20000 	lb	v0,0(a1)
40001064:	00a03821 	move	a3,a1
40001068:	00809021 	move	s2,a0
4000106c:	afa60088 	sw	a2,136(sp)
40001070:	10400042 	beqz	v0,4000117c <print+0x148>
40001074:	00008821 	move	s1,zero
40001078:	3c034000 	lui	v1,0x4000
4000107c:	8c753518 	lw	s5,13592(v1)
40001080:	3c134000 	lui	s3,0x4000
40001084:	267333ec 	addiu	s3,s3,13292
40001088:	3c144000 	lui	s4,0x4000
4000108c:	24030025 	li	v1,37
40001090:	144300fd 	bne	v0,v1,40001488 <print+0x454>
40001094:	00e08021 	move	s0,a3
40001098:	80e50001 	lb	a1,1(a3)
4000109c:	10a00037 	beqz	a1,4000117c <print+0x148>
400010a0:	00000000 	nop
400010a4:	10a200f9 	beq	a1,v0,4000148c <print+0x458>
400010a8:	24f00001 	addiu	s0,a3,1
400010ac:	2402002d 	li	v0,45
400010b0:	10a200fe 	beq	a1,v0,400014ac <print+0x478>
400010b4:	00001821 	move	v1,zero
400010b8:	24020030 	li	v0,48
400010bc:	14a20006 	bne	a1,v0,400010d8 <print+0xa4>
400010c0:	24a4ffd0 	addiu	a0,a1,-48
400010c4:	26100001 	addiu	s0,s0,1
400010c8:	82050000 	lb	a1,0(s0)
400010cc:	10a2fffd 	beq	a1,v0,400010c4 <print+0x90>
400010d0:	34630002 	ori	v1,v1,0x2
400010d4:	24a4ffd0 	addiu	a0,a1,-48
400010d8:	308600ff 	andi	a2,a0,0xff
400010dc:	2cc6000a 	sltiu	a2,a2,10
400010e0:	10c0000d 	beqz	a2,40001118 <print+0xe4>
400010e4:	00001021 	move	v0,zero
400010e8:	26100001 	addiu	s0,s0,1
400010ec:	82050000 	lb	a1,0(s0)
400010f0:	00023040 	sll	a2,v0,0x1
400010f4:	000210c0 	sll	v0,v0,0x3
400010f8:	00c21021 	addu	v0,a2,v0
400010fc:	00821021 	addu	v0,a0,v0
40001100:	24a4ffd0 	addiu	a0,a1,-48
40001104:	308600ff 	andi	a2,a0,0xff
40001108:	2cc6000a 	sltiu	a2,a2,10
4000110c:	14c0fff7 	bnez	a2,400010ec <print+0xb8>
40001110:	26100001 	addiu	s0,s0,1
40001114:	2610ffff 	addiu	s0,s0,-1
40001118:	24a5ffd2 	addiu	a1,a1,-46
4000111c:	30a500ff 	andi	a1,a1,0xff
40001120:	2ca4004b 	sltiu	a0,a1,75
40001124:	10800012 	beqz	a0,40001170 <print+0x13c>
40001128:	00052880 	sll	a1,a1,0x2
4000112c:	02652821 	addu	a1,s3,a1
40001130:	8ca40000 	lw	a0,0(a1)
40001134:	00800008 	jr	a0
40001138:	00000000 	nop
4000113c:	8fa80088 	lw	t0,136(sp)
40001140:	02402021 	move	a0,s2
40001144:	2406000a 	li	a2,10
40001148:	8d050000 	lw	a1,0(t0)
4000114c:	25080004 	addiu	t0,t0,4
40001150:	00003821 	move	a3,zero
40001154:	afa20010 	sw	v0,16(sp)
40001158:	24020061 	li	v0,97
4000115c:	afa80088 	sw	t0,136(sp)
40001160:	afa30014 	sw	v1,20(sp)
40001164:	0c00033b 	jal	40000cec <printi>
40001168:	afa20018 	sw	v0,24(sp)
4000116c:	02228821 	addu	s1,s1,v0
40001170:	82020001 	lb	v0,1(s0)
40001174:	1440ffc5 	bnez	v0,4000108c <print+0x58>
40001178:	26070001 	addiu	a3,s0,1
4000117c:	12400004 	beqz	s2,40001190 <print+0x15c>
40001180:	8fbf007c 	lw	ra,124(sp)
40001184:	8e420000 	lw	v0,0(s2)
40001188:	a0400000 	sb	zero,0(v0)
4000118c:	8fbf007c 	lw	ra,124(sp)
40001190:	02201021 	move	v0,s1
40001194:	8fbe0078 	lw	s8,120(sp)
40001198:	8fb70074 	lw	s7,116(sp)
4000119c:	8fb60070 	lw	s6,112(sp)
400011a0:	8fb5006c 	lw	s5,108(sp)
400011a4:	8fb40068 	lw	s4,104(sp)
400011a8:	8fb30064 	lw	s3,100(sp)
400011ac:	8fb20060 	lw	s2,96(sp)
400011b0:	8fb1005c 	lw	s1,92(sp)
400011b4:	8fb00058 	lw	s0,88(sp)
400011b8:	03e00008 	jr	ra
400011bc:	27bd0080 	addiu	sp,sp,128
400011c0:	8fa80088 	lw	t0,136(sp)
400011c4:	02402021 	move	a0,s2
400011c8:	24060010 	li	a2,16
400011cc:	8d050000 	lw	a1,0(t0)
400011d0:	08000454 	j	40001150 <print+0x11c>
400011d4:	25080004 	addiu	t0,t0,4
400011d8:	8fa40088 	lw	a0,136(sp)
400011dc:	8c850000 	lw	a1,0(a0)
400011e0:	24840004 	addiu	a0,a0,4
400011e4:	10a000b5 	beqz	a1,400014bc <print+0x488>
400011e8:	afa40088 	sw	a0,136(sp)
400011ec:	00603821 	move	a3,v1
400011f0:	02402021 	move	a0,s2
400011f4:	0c0002f2 	jal	40000bc8 <prints>
400011f8:	00403021 	move	a2,v0
400011fc:	02228821 	addu	s1,s1,v0
40001200:	82020001 	lb	v0,1(s0)
40001204:	1440ffa1 	bnez	v0,4000108c <print+0x58>
40001208:	26070001 	addiu	a3,s0,1
4000120c:	0800045f 	j	4000117c <print+0x148>
40001210:	00000000 	nop
40001214:	8fa80088 	lw	t0,136(sp)
40001218:	02402021 	move	a0,s2
4000121c:	2406000a 	li	a2,10
40001220:	8d050000 	lw	a1,0(t0)
40001224:	24070001 	li	a3,1
40001228:	08000455 	j	40001154 <print+0x120>
4000122c:	25080004 	addiu	t0,t0,4
40001230:	8fa90088 	lw	t1,136(sp)
40001234:	00603821 	move	a3,v1
40001238:	02402021 	move	a0,s2
4000123c:	8d280000 	lw	t0,0(t1)
40001240:	27a50020 	addiu	a1,sp,32
40001244:	25290004 	addiu	t1,t1,4
40001248:	00403021 	move	a2,v0
4000124c:	afa90088 	sw	t1,136(sp)
40001250:	a3a80020 	sb	t0,32(sp)
40001254:	0c0002f2 	jal	40000bc8 <prints>
40001258:	a3a00021 	sb	zero,33(sp)
4000125c:	02228821 	addu	s1,s1,v0
40001260:	82020001 	lb	v0,1(s0)
40001264:	1440ff89 	bnez	v0,4000108c <print+0x58>
40001268:	26070001 	addiu	a3,s0,1
4000126c:	0800045f 	j	4000117c <print+0x148>
40001270:	00000000 	nop
40001274:	8fa80088 	lw	t0,136(sp)
40001278:	00003821 	move	a3,zero
4000127c:	02402021 	move	a0,s2
40001280:	8d050000 	lw	a1,0(t0)
40001284:	24060010 	li	a2,16
40001288:	25080004 	addiu	t0,t0,4
4000128c:	afa20010 	sw	v0,16(sp)
40001290:	24020041 	li	v0,65
40001294:	afa80088 	sw	t0,136(sp)
40001298:	afa30014 	sw	v1,20(sp)
4000129c:	0c00033b 	jal	40000cec <printi>
400012a0:	afa20018 	sw	v0,24(sp)
400012a4:	02228821 	addu	s1,s1,v0
400012a8:	82020001 	lb	v0,1(s0)
400012ac:	1440ff77 	bnez	v0,4000108c <print+0x58>
400012b0:	26070001 	addiu	a3,s0,1
400012b4:	0800045f 	j	4000117c <print+0x148>
400012b8:	00000000 	nop
400012bc:	8fa20088 	lw	v0,136(sp)
400012c0:	00002821 	move	a1,zero
400012c4:	24160006 	li	s6,6
400012c8:	8c570000 	lw	s7,0(v0)
400012cc:	24420004 	addiu	v0,v0,4
400012d0:	afa20088 	sw	v0,136(sp)
400012d4:	0c000662 	jal	40001988 <__ltsf2>
400012d8:	02e02021 	move	a0,s7
400012dc:	04400064 	bltz	v0,40001470 <print+0x43c>
400012e0:	00000000 	nop
400012e4:	0c0006b3 	jal	40001acc <__fixsfsi>
400012e8:	02e02021 	move	a0,s7
400012ec:	27be0024 	addiu	s8,sp,36
400012f0:	00402021 	move	a0,v0
400012f4:	03c02821 	move	a1,s8
400012f8:	2406000a 	li	a2,10
400012fc:	0c0003c4 	jal	40000f10 <itoa>
40001300:	afa2004c 	sw	v0,76(sp)
40001304:	83a40024 	lb	a0,36(sp)
40001308:	10800009 	beqz	a0,40001330 <print+0x2fc>
4000130c:	03d11023 	subu	v0,s8,s1
40001310:	afa20048 	sw	v0,72(sp)
40001314:	0c0000b9 	jal	400002e4 <putchar>
40001318:	26310001 	addiu	s1,s1,1
4000131c:	8fa30048 	lw	v1,72(sp)
40001320:	00711021 	addu	v0,v1,s1
40001324:	80440000 	lb	a0,0(v0)
40001328:	1480fffa 	bnez	a0,40001314 <print+0x2e0>
4000132c:	00000000 	nop
40001330:	0c0000b9 	jal	400002e4 <putchar>
40001334:	2404002e 	li	a0,46
40001338:	1ac00062 	blez	s6,400014c4 <print+0x490>
4000133c:	00001021 	move	v0,zero
40001340:	24030001 	li	v1,1
40001344:	00032040 	sll	a0,v1,0x1
40001348:	24420001 	addiu	v0,v0,1
4000134c:	000318c0 	sll	v1,v1,0x3
40001350:	1456fffc 	bne	v0,s6,40001344 <print+0x310>
40001354:	00831821 	addu	v1,a0,v1
40001358:	00602021 	move	a0,v1
4000135c:	0c0006c9 	jal	40001b24 <__floatsisf>
40001360:	afa30050 	sw	v1,80(sp)
40001364:	8fa30050 	lw	v1,80(sp)
40001368:	2405000a 	li	a1,10
4000136c:	0040b021 	move	s6,v0
40001370:	0c00056f 	jal	400015bc <__divsi3>
40001374:	00602021 	move	a0,v1
40001378:	00401821 	move	v1,v0
4000137c:	8fa4004c 	lw	a0,76(sp)
40001380:	0c0006c9 	jal	40001b24 <__floatsisf>
40001384:	afa30050 	sw	v1,80(sp)
40001388:	00402821 	move	a1,v0
4000138c:	0c000644 	jal	40001910 <__subsf3>
40001390:	02e02021 	move	a0,s7
40001394:	00402021 	move	a0,v0
40001398:	0c00066a 	jal	400019a8 <__mulsf3>
4000139c:	02c02821 	move	a1,s6
400013a0:	0c0006b3 	jal	40001acc <__fixsfsi>
400013a4:	00402021 	move	a0,v0
400013a8:	8fa30050 	lw	v1,80(sp)
400013ac:	0040b021 	move	s6,v0
400013b0:	0043102a 	slt	v0,v0,v1
400013b4:	1040000d 	beqz	v0,400013ec <print+0x3b8>
400013b8:	02402021 	move	a0,s2
400013bc:	24050030 	li	a1,48
400013c0:	0c0002e8 	jal	40000ba0 <printchar>
400013c4:	afa30050 	sw	v1,80(sp)
400013c8:	8fa30050 	lw	v1,80(sp)
400013cc:	2405000a 	li	a1,10
400013d0:	26310001 	addiu	s1,s1,1
400013d4:	0c00056f 	jal	400015bc <__divsi3>
400013d8:	00602021 	move	a0,v1
400013dc:	00401821 	move	v1,v0
400013e0:	02c2102a 	slt	v0,s6,v0
400013e4:	1440fff5 	bnez	v0,400013bc <print+0x388>
400013e8:	02402021 	move	a0,s2
400013ec:	02c02021 	move	a0,s6
400013f0:	03c02821 	move	a1,s8
400013f4:	0c0003c4 	jal	40000f10 <itoa>
400013f8:	2406000a 	li	a2,10
400013fc:	12c0ff5c 	beqz	s6,40001170 <print+0x13c>
40001400:	83a50024 	lb	a1,36(sp)
40001404:	10a0ff5a 	beqz	a1,40001170 <print+0x13c>
40001408:	03d1f023 	subu	s8,s8,s1
4000140c:	02402021 	move	a0,s2
40001410:	0c0002e8 	jal	40000ba0 <printchar>
40001414:	26310001 	addiu	s1,s1,1
40001418:	03d11021 	addu	v0,s8,s1
4000141c:	80450000 	lb	a1,0(v0)
40001420:	14a0fffb 	bnez	a1,40001410 <print+0x3dc>
40001424:	02402021 	move	a0,s2
40001428:	82020001 	lb	v0,1(s0)
4000142c:	1440ff17 	bnez	v0,4000108c <print+0x58>
40001430:	26070001 	addiu	a3,s0,1
40001434:	0800045f 	j	4000117c <print+0x148>
40001438:	00000000 	nop
4000143c:	8fa20088 	lw	v0,136(sp)
40001440:	82160001 	lb	s6,1(s0)
40001444:	00002821 	move	a1,zero
40001448:	8c570000 	lw	s7,0(v0)
4000144c:	24420004 	addiu	v0,v0,4
40001450:	26310001 	addiu	s1,s1,1
40001454:	02e02021 	move	a0,s7
40001458:	26100001 	addiu	s0,s0,1
4000145c:	26d6ffd0 	addiu	s6,s6,-48
40001460:	0c000662 	jal	40001988 <__ltsf2>
40001464:	afa20088 	sw	v0,136(sp)
40001468:	0441ff9e 	bgez	v0,400012e4 <print+0x2b0>
4000146c:	00000000 	nop
40001470:	0c0000b9 	jal	400002e4 <putchar>
40001474:	2404002d 	li	a0,45
40001478:	3c028000 	lui	v0,0x8000
4000147c:	0057b826 	xor	s7,v0,s7
40001480:	080004b9 	j	400012e4 <print+0x2b0>
40001484:	26310001 	addiu	s1,s1,1
40001488:	80e50000 	lb	a1,0(a3)
4000148c:	0c0002e8 	jal	40000ba0 <printchar>
40001490:	02402021 	move	a0,s2
40001494:	82020001 	lb	v0,1(s0)
40001498:	26310001 	addiu	s1,s1,1
4000149c:	1440fefb 	bnez	v0,4000108c <print+0x58>
400014a0:	26070001 	addiu	a3,s0,1
400014a4:	0800045f 	j	4000117c <print+0x148>
400014a8:	00000000 	nop
400014ac:	80e50002 	lb	a1,2(a3)
400014b0:	24f00002 	addiu	s0,a3,2
400014b4:	0800042e 	j	400010b8 <print+0x84>
400014b8:	24030001 	li	v1,1
400014bc:	0800047b 	j	400011ec <print+0x1b8>
400014c0:	26853388 	addiu	a1,s4,13192
400014c4:	00001821 	move	v1,zero
400014c8:	080004df 	j	4000137c <print+0x348>
400014cc:	02a0b021 	move	s6,s5

400014d0 <printf>:
400014d0:	27bdffe0 	addiu	sp,sp,-32
400014d4:	27a20024 	addiu	v0,sp,36
400014d8:	00801821 	move	v1,a0
400014dc:	afa50024 	sw	a1,36(sp)
400014e0:	afa60028 	sw	a2,40(sp)
400014e4:	00002021 	move	a0,zero
400014e8:	00602821 	move	a1,v1
400014ec:	00403021 	move	a2,v0
400014f0:	afbf001c 	sw	ra,28(sp)
400014f4:	afa7002c 	sw	a3,44(sp)
400014f8:	0c00040d 	jal	40001034 <print>
400014fc:	afa20010 	sw	v0,16(sp)
40001500:	8fbf001c 	lw	ra,28(sp)
40001504:	03e00008 	jr	ra
40001508:	27bd0020 	addiu	sp,sp,32

4000150c <__mulsi3>:
4000150c:	10a00007 	beqz	a1,4000152c <__mulsi3+0x20>
40001510:	00001021 	move	v0,zero
40001514:	30a30001 	andi	v1,a1,0x1
40001518:	10600002 	beqz	v1,40001524 <__mulsi3+0x18>
4000151c:	00052842 	srl	a1,a1,0x1
40001520:	00441021 	addu	v0,v0,a0
40001524:	14a0fffb 	bnez	a1,40001514 <__mulsi3+0x8>
40001528:	00042040 	sll	a0,a0,0x1
4000152c:	03e00008 	jr	ra
40001530:	00000000 	nop

40001534 <__udivmodsi4>:
40001534:	00a4182b 	sltu	v1,a1,a0
40001538:	1060001e 	beqz	v1,400015b4 <__udivmodsi4+0x80>
4000153c:	00801021 	move	v0,a0
40001540:	04a0001c 	bltz	a1,400015b4 <__udivmodsi4+0x80>
40001544:	24040020 	li	a0,32
40001548:	08000558 	j	40001560 <__udivmodsi4+0x2c>
4000154c:	24030001 	li	v1,1
40001550:	10800013 	beqz	a0,400015a0 <__udivmodsi4+0x6c>
40001554:	00003821 	move	a3,zero
40001558:	04a00009 	bltz	a1,40001580 <__udivmodsi4+0x4c>
4000155c:	00000000 	nop
40001560:	00052840 	sll	a1,a1,0x1
40001564:	00a2382b 	sltu	a3,a1,v0
40001568:	2484ffff 	addiu	a0,a0,-1
4000156c:	14e0fff8 	bnez	a3,40001550 <__udivmodsi4+0x1c>
40001570:	00031840 	sll	v1,v1,0x1
40001574:	1060000a 	beqz	v1,400015a0 <__udivmodsi4+0x6c>
40001578:	00003821 	move	a3,zero
4000157c:	00003821 	move	a3,zero
40001580:	0045202b 	sltu	a0,v0,a1
40001584:	14800003 	bnez	a0,40001594 <__udivmodsi4+0x60>
40001588:	00000000 	nop
4000158c:	00451023 	subu	v0,v0,a1
40001590:	00e33825 	or	a3,a3,v1
40001594:	00031842 	srl	v1,v1,0x1
40001598:	1460fff9 	bnez	v1,40001580 <__udivmodsi4+0x4c>
4000159c:	00052842 	srl	a1,a1,0x1
400015a0:	14c00002 	bnez	a2,400015ac <__udivmodsi4+0x78>
400015a4:	00000000 	nop
400015a8:	00e01021 	move	v0,a3
400015ac:	03e00008 	jr	ra
400015b0:	00000000 	nop
400015b4:	0800055f 	j	4000157c <__udivmodsi4+0x48>
400015b8:	24030001 	li	v1,1

400015bc <__divsi3>:
400015bc:	27bdffe8 	addiu	sp,sp,-24
400015c0:	afb00010 	sw	s0,16(sp)
400015c4:	afbf0014 	sw	ra,20(sp)
400015c8:	0480000b 	bltz	a0,400015f8 <__divsi3+0x3c>
400015cc:	00008021 	move	s0,zero
400015d0:	04a0000c 	bltz	a1,40001604 <__divsi3+0x48>
400015d4:	00000000 	nop
400015d8:	0c00054d 	jal	40001534 <__udivmodsi4>
400015dc:	00003021 	move	a2,zero
400015e0:	12000002 	beqz	s0,400015ec <__divsi3+0x30>
400015e4:	8fbf0014 	lw	ra,20(sp)
400015e8:	00021023 	negu	v0,v0
400015ec:	8fb00010 	lw	s0,16(sp)
400015f0:	03e00008 	jr	ra
400015f4:	27bd0018 	addiu	sp,sp,24
400015f8:	00042023 	negu	a0,a0
400015fc:	04a1fff6 	bgez	a1,400015d8 <__divsi3+0x1c>
40001600:	24100001 	li	s0,1
40001604:	00052823 	negu	a1,a1
40001608:	08000576 	j	400015d8 <__divsi3+0x1c>
4000160c:	3a100001 	xori	s0,s0,0x1

40001610 <__modsi3>:
40001610:	27bdffe8 	addiu	sp,sp,-24
40001614:	04800008 	bltz	a0,40001638 <__modsi3+0x28>
40001618:	afbf0014 	sw	ra,20(sp)
4000161c:	000517c3 	sra	v0,a1,0x1f
40001620:	00452826 	xor	a1,v0,a1
40001624:	8fbf0014 	lw	ra,20(sp)
40001628:	00a22823 	subu	a1,a1,v0
4000162c:	24060001 	li	a2,1
40001630:	0800054d 	j	40001534 <__udivmodsi4>
40001634:	27bd0018 	addiu	sp,sp,24
40001638:	00051fc3 	sra	v1,a1,0x1f
4000163c:	00652826 	xor	a1,v1,a1
40001640:	00042023 	negu	a0,a0
40001644:	00a32823 	subu	a1,a1,v1
40001648:	0c00054d 	jal	40001534 <__udivmodsi4>
4000164c:	24060001 	li	a2,1
40001650:	8fbf0014 	lw	ra,20(sp)
40001654:	00021023 	negu	v0,v0
40001658:	03e00008 	jr	ra
4000165c:	27bd0018 	addiu	sp,sp,24

40001660 <__udivsi3>:
40001660:	0800054d 	j	40001534 <__udivmodsi4>
40001664:	00003021 	move	a2,zero

40001668 <__umodsi3>:
40001668:	0800054d 	j	40001534 <__udivmodsi4>
4000166c:	24060001 	li	a2,1

40001670 <__udivmoddi4>:
40001670:	27bdffe0 	addiu	sp,sp,-32
40001674:	00c71025 	or	v0,a2,a3
40001678:	afbf001c 	sw	ra,28(sp)
4000167c:	afb10018 	sw	s1,24(sp)
40001680:	afb00014 	sw	s0,20(sp)
40001684:	10400039 	beqz	v0,4000176c <__udivmoddi4+0xfc>
40001688:	8fb80030 	lw	t8,48(sp)
4000168c:	24030001 	li	v1,1
40001690:	04c0000e 	bltz	a2,400016cc <__udivmoddi4+0x5c>
40001694:	00001021 	move	v0,zero
40001698:	00075fc2 	srl	t3,a3,0x1f
4000169c:	00063040 	sll	a2,a2,0x1
400016a0:	000357c2 	srl	t2,v1,0x1f
400016a4:	00024840 	sll	t1,v0,0x1
400016a8:	00034040 	sll	t0,v1,0x1
400016ac:	01663025 	or	a2,t3,a2
400016b0:	01491025 	or	v0,t2,t1
400016b4:	00073840 	sll	a3,a3,0x1
400016b8:	04c1fff7 	bgez	a2,40001698 <__udivmoddi4+0x28>
400016bc:	01001821 	move	v1,t0
400016c0:	01024025 	or	t0,t0,v0
400016c4:	11000035 	beqz	t0,4000179c <__udivmoddi4+0x12c>
400016c8:	00004821 	move	t1,zero
400016cc:	00004821 	move	t1,zero
400016d0:	00004021 	move	t0,zero
400016d4:	0086782b 	sltu	t7,a0,a2
400016d8:	00027042 	srl	t6,v0,0x1
400016dc:	00026fc0 	sll	t5,v0,0x1f
400016e0:	00035042 	srl	t2,v1,0x1
400016e4:	000667c0 	sll	t4,a2,0x1f
400016e8:	15e0000f 	bnez	t7,40001728 <__udivmoddi4+0xb8>
400016ec:	00075842 	srl	t3,a3,0x1
400016f0:	00a77823 	subu	t7,a1,a3
400016f4:	01231821 	addu	v1,t1,v1
400016f8:	01021021 	addu	v0,t0,v0
400016fc:	0069882b 	sltu	s1,v1,t1
40001700:	00afc82b 	sltu	t9,a1,t7
40001704:	00868023 	subu	s0,a0,a2
40001708:	14c40003 	bne	a2,a0,40001718 <__udivmoddi4+0xa8>
4000170c:	00a7382b 	sltu	a3,a1,a3
40001710:	14e00005 	bnez	a3,40001728 <__udivmoddi4+0xb8>
40001714:	00000000 	nop
40001718:	02224021 	addu	t0,s1,v0
4000171c:	02192023 	subu	a0,s0,t9
40001720:	01e02821 	move	a1,t7
40001724:	00604821 	move	t1,v1
40001728:	01aa1825 	or	v1,t5,t2
4000172c:	01c35025 	or	t2,t6,v1
40001730:	01c01021 	move	v0,t6
40001734:	00063042 	srl	a2,a2,0x1
40001738:	1540ffe6 	bnez	t2,400016d4 <__udivmoddi4+0x64>
4000173c:	018b3825 	or	a3,t4,t3
40001740:	13000004 	beqz	t8,40001754 <__udivmoddi4+0xe4>
40001744:	8fbf001c 	lw	ra,28(sp)
40001748:	af040000 	sw	a0,0(t8)
4000174c:	af050004 	sw	a1,4(t8)
40001750:	8fbf001c 	lw	ra,28(sp)
40001754:	01001021 	move	v0,t0
40001758:	01201821 	move	v1,t1
4000175c:	8fb10018 	lw	s1,24(sp)
40001760:	8fb00014 	lw	s0,20(sp)
40001764:	03e00008 	jr	ra
40001768:	27bd0020 	addiu	sp,sp,32
4000176c:	24040001 	li	a0,1
40001770:	0c000598 	jal	40001660 <__udivsi3>
40001774:	00002821 	move	a1,zero
40001778:	8fbf001c 	lw	ra,28(sp)
4000177c:	00404821 	move	t1,v0
40001780:	00004021 	move	t0,zero
40001784:	01001021 	move	v0,t0
40001788:	01201821 	move	v1,t1
4000178c:	8fb10018 	lw	s1,24(sp)
40001790:	8fb00014 	lw	s0,20(sp)
40001794:	03e00008 	jr	ra
40001798:	27bd0020 	addiu	sp,sp,32
4000179c:	080005d0 	j	40001740 <__udivmoddi4+0xd0>
400017a0:	00004021 	move	t0,zero

400017a4 <__udivdi3>:
400017a4:	27bdffe0 	addiu	sp,sp,-32
400017a8:	afbf001c 	sw	ra,28(sp)
400017ac:	0c00059c 	jal	40001670 <__udivmoddi4>
400017b0:	afa00010 	sw	zero,16(sp)
400017b4:	8fbf001c 	lw	ra,28(sp)
400017b8:	03e00008 	jr	ra
400017bc:	27bd0020 	addiu	sp,sp,32

400017c0 <__addsf3>:
400017c0:	00803821 	move	a3,a0
400017c4:	10800045 	beqz	a0,400018dc <__addsf3+0x11c>
400017c8:	00a01021 	move	v0,a1
400017cc:	00a04021 	move	t0,a1
400017d0:	10a00042 	beqz	a1,400018dc <__addsf3+0x11c>
400017d4:	00801021 	move	v0,a0
400017d8:	00054dc3 	sra	t1,a1,0x17
400017dc:	000435c3 	sra	a2,a0,0x17
400017e0:	312900ff 	andi	t1,t1,0xff
400017e4:	30c600ff 	andi	a2,a2,0xff
400017e8:	25230019 	addiu	v1,t1,25
400017ec:	0066182a 	slt	v1,v1,a2
400017f0:	1460003a 	bnez	v1,400018dc <__addsf3+0x11c>
400017f4:	24c30019 	addiu	v1,a2,25
400017f8:	0069182a 	slt	v1,v1,t1
400017fc:	14600037 	bnez	v1,400018dc <__addsf3+0x11c>
40001800:	00a01021 	move	v0,a1
40001804:	3c02007f 	lui	v0,0x7f
40001808:	3442ffff 	ori	v0,v0,0xffff
4000180c:	3c040080 	lui	a0,0x80
40001810:	00e21824 	and	v1,a3,v0
40001814:	00a21024 	and	v0,a1,v0
40001818:	00641825 	or	v1,v1,a0
4000181c:	00441025 	or	v0,v0,a0
40001820:	00031980 	sll	v1,v1,0x6
40001824:	04e00033 	bltz	a3,400018f4 <__addsf3+0x134>
40001828:	00021180 	sll	v0,v0,0x6
4000182c:	05000036 	bltz	t0,40001908 <__addsf3+0x148>
40001830:	00000000 	nop
40001834:	0126202a 	slt	a0,t1,a2
40001838:	1080002a 	beqz	a0,400018e4 <__addsf3+0x124>
4000183c:	00000000 	nop
40001840:	00c94823 	subu	t1,a2,t1
40001844:	01221007 	srav	v0,v0,t1
40001848:	00621821 	addu	v1,v1,v0
4000184c:	0460002b 	bltz	v1,400018fc <__addsf3+0x13c>
40001850:	00000000 	nop
40001854:	10600021 	beqz	v1,400018dc <__addsf3+0x11c>
40001858:	00001021 	move	v0,zero
4000185c:	00001021 	move	v0,zero
40001860:	3c04e000 	lui	a0,0xe000
40001864:	00642024 	and	a0,v1,a0
40001868:	14800005 	bnez	a0,40001880 <__addsf3+0xc0>
4000186c:	3c05e000 	lui	a1,0xe000
40001870:	00031840 	sll	v1,v1,0x1
40001874:	00652024 	and	a0,v1,a1
40001878:	1080fffd 	beqz	a0,40001870 <__addsf3+0xb0>
4000187c:	24c6ffff 	addiu	a2,a2,-1
40001880:	3c044000 	lui	a0,0x4000
40001884:	00642024 	and	a0,v1,a0
40001888:	10800004 	beqz	a0,4000189c <__addsf3+0xdc>
4000188c:	30640040 	andi	a0,v1,0x40
40001890:	00031843 	sra	v1,v1,0x1
40001894:	24c60001 	addiu	a2,a2,1
40001898:	30640040 	andi	a0,v1,0x40
4000189c:	2c840001 	sltiu	a0,a0,1
400018a0:	24050020 	li	a1,32
400018a4:	00a42023 	subu	a0,a1,a0
400018a8:	00831821 	addu	v1,a0,v1
400018ac:	3c044000 	lui	a0,0x4000
400018b0:	00642024 	and	a0,v1,a0
400018b4:	10800003 	beqz	a0,400018c4 <__addsf3+0x104>
400018b8:	3c04ff7f 	lui	a0,0xff7f
400018bc:	00031843 	sra	v1,v1,0x1
400018c0:	24c60001 	addiu	a2,a2,1
400018c4:	00031983 	sra	v1,v1,0x6
400018c8:	000635c0 	sll	a2,a2,0x17
400018cc:	3484ffff 	ori	a0,a0,0xffff
400018d0:	00c21025 	or	v0,a2,v0
400018d4:	00641824 	and	v1,v1,a0
400018d8:	00431025 	or	v0,v0,v1
400018dc:	03e00008 	jr	ra
400018e0:	00000000 	nop
400018e4:	01263023 	subu	a2,t1,a2
400018e8:	00c31807 	srav	v1,v1,a2
400018ec:	08000612 	j	40001848 <__addsf3+0x88>
400018f0:	01203021 	move	a2,t1
400018f4:	0800060b 	j	4000182c <__addsf3+0x6c>
400018f8:	00031823 	negu	v1,v1
400018fc:	00031823 	negu	v1,v1
40001900:	08000618 	j	40001860 <__addsf3+0xa0>
40001904:	3c028000 	lui	v0,0x8000
40001908:	0800060d 	j	40001834 <__addsf3+0x74>
4000190c:	00021023 	negu	v0,v0

40001910 <__subsf3>:
40001910:	00a01821 	move	v1,a1
40001914:	10a00005 	beqz	a1,4000192c <__subsf3+0x1c>
40001918:	00801021 	move	v0,a0
4000191c:	14800005 	bnez	a0,40001934 <__subsf3+0x24>
40001920:	3c028000 	lui	v0,0x8000
40001924:	03e00008 	jr	ra
40001928:	00a21026 	xor	v0,a1,v0
4000192c:	03e00008 	jr	ra
40001930:	00000000 	nop
40001934:	3c058000 	lui	a1,0x8000
40001938:	080005f0 	j	400017c0 <__addsf3>
4000193c:	00652826 	xor	a1,v1,a1

40001940 <__cmpsf2>:
40001940:	04800005 	bltz	a0,40001958 <__cmpsf2+0x18>
40001944:	0085182a 	slt	v1,a0,a1
40001948:	1460000d 	bnez	v1,40001980 <__cmpsf2+0x40>
4000194c:	2402ffff 	li	v0,-1
40001950:	03e00008 	jr	ra
40001954:	00a4102a 	slt	v0,a1,a0
40001958:	04a1fffb 	bgez	a1,40001948 <__cmpsf2+0x8>
4000195c:	00000000 	nop
40001960:	3c038000 	lui	v1,0x8000
40001964:	00832026 	xor	a0,a0,v1
40001968:	00a31826 	xor	v1,a1,v1
4000196c:	0064282a 	slt	a1,v1,a0
40001970:	14a00003 	bnez	a1,40001980 <__cmpsf2+0x40>
40001974:	2402ffff 	li	v0,-1
40001978:	03e00008 	jr	ra
4000197c:	0083102a 	slt	v0,a0,v1
40001980:	03e00008 	jr	ra
40001984:	00000000 	nop

40001988 <__ltsf2>:
40001988:	27bdffe8 	addiu	sp,sp,-24
4000198c:	afbf0014 	sw	ra,20(sp)
40001990:	0c000650 	jal	40001940 <__cmpsf2>
40001994:	00000000 	nop
40001998:	8fbf0014 	lw	ra,20(sp)
4000199c:	000217c3 	sra	v0,v0,0x1f
400019a0:	03e00008 	jr	ra
400019a4:	27bd0018 	addiu	sp,sp,24

400019a8 <__mulsf3>:
400019a8:	27bdffd0 	addiu	sp,sp,-48
400019ac:	afbf002c 	sw	ra,44(sp)
400019b0:	afb60028 	sw	s6,40(sp)
400019b4:	afb50024 	sw	s5,36(sp)
400019b8:	afb40020 	sw	s4,32(sp)
400019bc:	afb3001c 	sw	s3,28(sp)
400019c0:	afb20018 	sw	s2,24(sp)
400019c4:	afb10014 	sw	s1,20(sp)
400019c8:	afb00010 	sw	s0,16(sp)
400019cc:	10800032 	beqz	a0,40001a98 <__mulsf3+0xf0>
400019d0:	00001021 	move	v0,zero
400019d4:	10a00030 	beqz	a1,40001a98 <__mulsf3+0xf0>
400019d8:	3c11007f 	lui	s1,0x7f
400019dc:	3631ffff 	ori	s1,s1,0xffff
400019e0:	00919824 	and	s3,a0,s1
400019e4:	3c020080 	lui	v0,0x80
400019e8:	00b18824 	and	s1,a1,s1
400019ec:	02228825 	or	s1,s1,v0
400019f0:	02629825 	or	s3,s3,v0
400019f4:	000415c3 	sra	v0,a0,0x17
400019f8:	0011a203 	sra	s4,s1,0x8
400019fc:	000585c3 	sra	s0,a1,0x17
40001a00:	00139203 	sra	s2,s3,0x8
40001a04:	304200ff 	andi	v0,v0,0xff
40001a08:	3c038000 	lui	v1,0x8000
40001a0c:	0085a826 	xor	s5,a0,a1
40001a10:	2442ff82 	addiu	v0,v0,-126
40001a14:	02802821 	move	a1,s4
40001a18:	02402021 	move	a0,s2
40001a1c:	321000ff 	andi	s0,s0,0xff
40001a20:	02a3a824 	and	s5,s5,v1
40001a24:	0c000543 	jal	4000150c <__mulsi3>
40001a28:	02028021 	addu	s0,s0,v0
40001a2c:	02802021 	move	a0,s4
40001a30:	326500ff 	andi	a1,s3,0xff
40001a34:	0c000543 	jal	4000150c <__mulsi3>
40001a38:	0040b021 	move	s6,v0
40001a3c:	322500ff 	andi	a1,s1,0xff
40001a40:	02402021 	move	a0,s2
40001a44:	0c000543 	jal	4000150c <__mulsi3>
40001a48:	00028a03 	sra	s1,v0,0x8
40001a4c:	00021203 	sra	v0,v0,0x8
40001a50:	02228821 	addu	s1,s1,v0
40001a54:	0236b021 	addu	s6,s1,s6
40001a58:	06c00019 	bltz	s6,40001ac0 <__mulsf3+0x118>
40001a5c:	00161882 	srl	v1,s6,0x2
40001a60:	24630010 	addiu	v1,v1,16
40001a64:	00031942 	srl	v1,v1,0x5
40001a68:	2610ffff 	addiu	s0,s0,-1
40001a6c:	3c020100 	lui	v0,0x100
40001a70:	00621024 	and	v0,v1,v0
40001a74:	10400003 	beqz	v0,40001a84 <__mulsf3+0xdc>
40001a78:	3c02ff7f 	lui	v0,0xff7f
40001a7c:	00031842 	srl	v1,v1,0x1
40001a80:	26100001 	addiu	s0,s0,1
40001a84:	3442ffff 	ori	v0,v0,0xffff
40001a88:	001085c0 	sll	s0,s0,0x17
40001a8c:	0215a825 	or	s5,s0,s5
40001a90:	00621824 	and	v1,v1,v0
40001a94:	02a31025 	or	v0,s5,v1
40001a98:	8fbf002c 	lw	ra,44(sp)
40001a9c:	8fb60028 	lw	s6,40(sp)
40001aa0:	8fb50024 	lw	s5,36(sp)
40001aa4:	8fb40020 	lw	s4,32(sp)
40001aa8:	8fb3001c 	lw	s3,28(sp)
40001aac:	8fb20018 	lw	s2,24(sp)
40001ab0:	8fb10014 	lw	s1,20(sp)
40001ab4:	8fb00010 	lw	s0,16(sp)
40001ab8:	03e00008 	jr	ra
40001abc:	27bd0030 	addiu	sp,sp,48
40001ac0:	24630020 	addiu	v1,v1,32
40001ac4:	0800069b 	j	40001a6c <__mulsf3+0xc4>
40001ac8:	00031982 	srl	v1,v1,0x6

40001acc <__fixsfsi>:
40001acc:	3c02007f 	lui	v0,0x7f
40001ad0:	3442ffff 	ori	v0,v0,0xffff
40001ad4:	00041dc2 	srl	v1,a0,0x17
40001ad8:	00821024 	and	v0,a0,v0
40001adc:	3c050080 	lui	a1,0x80
40001ae0:	00451025 	or	v0,v0,a1
40001ae4:	306300ff 	andi	v1,v1,0xff
40001ae8:	2405009d 	li	a1,157
40001aec:	00a31823 	subu	v1,a1,v1
40001af0:	000427c2 	srl	a0,a0,0x1f
40001af4:	18600004 	blez	v1,40001b08 <__fixsfsi+0x3c>
40001af8:	000211c0 	sll	v0,v0,0x7
40001afc:	2865001f 	slti	a1,v1,31
40001b00:	10a00006 	beqz	a1,40001b1c <__fixsfsi+0x50>
40001b04:	00621007 	srav	v0,v0,v1
40001b08:	10800002 	beqz	a0,40001b14 <__fixsfsi+0x48>
40001b0c:	00000000 	nop
40001b10:	00021023 	negu	v0,v0
40001b14:	03e00008 	jr	ra
40001b18:	00000000 	nop
40001b1c:	080006c2 	j	40001b08 <__fixsfsi+0x3c>
40001b20:	00001021 	move	v0,zero

40001b24 <__floatsisf>:
40001b24:	000417c3 	sra	v0,a0,0x1f
40001b28:	00441826 	xor	v1,v0,a0
40001b2c:	00621823 	subu	v1,v1,v0
40001b30:	1060001b 	beqz	v1,40001ba0 <__floatsisf+0x7c>
40001b34:	00001021 	move	v0,zero
40001b38:	3c05ff00 	lui	a1,0xff00
40001b3c:	00652824 	and	a1,v1,a1
40001b40:	10a00006 	beqz	a1,40001b5c <__floatsisf+0x38>
40001b44:	24020096 	li	v0,150
40001b48:	3c06ff00 	lui	a2,0xff00
40001b4c:	00031843 	sra	v1,v1,0x1
40001b50:	00662824 	and	a1,v1,a2
40001b54:	14a0fffd 	bnez	a1,40001b4c <__floatsisf+0x28>
40001b58:	24420001 	addiu	v0,v0,1
40001b5c:	3c05ff80 	lui	a1,0xff80
40001b60:	00652824 	and	a1,v1,a1
40001b64:	14a00007 	bnez	a1,40001b84 <__floatsisf+0x60>
40001b68:	3c05007f 	lui	a1,0x7f
40001b6c:	3c06ff80 	lui	a2,0xff80
40001b70:	00031840 	sll	v1,v1,0x1
40001b74:	00662824 	and	a1,v1,a2
40001b78:	10a0fffd 	beqz	a1,40001b70 <__floatsisf+0x4c>
40001b7c:	2442ffff 	addiu	v0,v0,-1
40001b80:	3c05007f 	lui	a1,0x7f
40001b84:	34a5ffff 	ori	a1,a1,0xffff
40001b88:	000215c0 	sll	v0,v0,0x17
40001b8c:	00651824 	and	v1,v1,a1
40001b90:	000427c2 	srl	a0,a0,0x1f
40001b94:	00431025 	or	v0,v0,v1
40001b98:	000427c0 	sll	a0,a0,0x1f
40001b9c:	00441025 	or	v0,v0,a0
40001ba0:	03e00008 	jr	ra
40001ba4:	00000000 	nop

40001ba8 <poolingServerTask>:
40001ba8:	27bdffe8 	addiu	sp,sp,-24
40001bac:	afb00010 	sw	s0,16(sp)
40001bb0:	3c104000 	lui	s0,0x4000
40001bb4:	afbf0014 	sw	ra,20(sp)
40001bb8:	2610352c 	addiu	s0,s0,13612
40001bbc:	0c0001e8 	jal	400007a0 <kprintf>
40001bc0:	02002021 	move	a0,s0
40001bc4:	080006ef 	j	40001bbc <poolingServerTask+0x14>
40001bc8:	00000000 	nop

40001bcc <idletask>:
40001bcc:	3c024008 	lui	v0,0x4008
40001bd0:	8c45f078 	lw	a1,-3976(v0)
40001bd4:	3c044000 	lui	a0,0x4000
40001bd8:	27bdffe8 	addiu	sp,sp,-24
40001bdc:	afbf0014 	sw	ra,20(sp)
40001be0:	0c0001e8 	jal	400007a0 <kprintf>
40001be4:	24843540 	addiu	a0,a0,13632
40001be8:	3c044000 	lui	a0,0x4000
40001bec:	0c0001e8 	jal	400007a0 <kprintf>
40001bf0:	24843560 	addiu	a0,a0,13664
40001bf4:	0c0008d0 	jal	40002340 <hf_schedlock>
40001bf8:	00002021 	move	a0,zero
40001bfc:	0c000114 	jal	40000450 <_cpu_idle>
40001c00:	00000000 	nop
40001c04:	0c000114 	jal	40000450 <_cpu_idle>
40001c08:	00000000 	nop
40001c0c:	080006ff 	j	40001bfc <idletask+0x30>
40001c10:	00000000 	nop

40001c14 <main>:
40001c14:	27bdffd0 	addiu	sp,sp,-48
40001c18:	afbf002c 	sw	ra,44(sp)
40001c1c:	afb40028 	sw	s4,40(sp)
40001c20:	afb30024 	sw	s3,36(sp)
40001c24:	afb20020 	sw	s2,32(sp)
40001c28:	afb1001c 	sw	s1,28(sp)
40001c2c:	0c0000c5 	jal	40000314 <_hardware_init>
40001c30:	afb00018 	sw	s0,24(sp)
40001c34:	0c0008d0 	jal	40002340 <hf_schedlock>
40001c38:	24040001 	li	a0,1
40001c3c:	0c000082 	jal	40000208 <_interrupt_set>
40001c40:	00002021 	move	a0,zero
40001c44:	3c044000 	lui	a0,0x4000
40001c48:	0c0001e8 	jal	400007a0 <kprintf>
40001c4c:	24843580 	addiu	a0,a0,13696
40001c50:	3c024000 	lui	v0,0x4000
40001c54:	8c443c94 	lw	a0,15508(v0)
40001c58:	3c03baad 	lui	v1,0xbaad
40001c5c:	3463d00d 	ori	v1,v1,0xd00d
40001c60:	1083000c 	beq	a0,v1,40001c94 <main+0x80>
40001c64:	3c044000 	lui	a0,0x4000
40001c68:	0c000867 	jal	4000219c <panic>
40001c6c:	24040001 	li	a0,1
40001c70:	8fbf002c 	lw	ra,44(sp)
40001c74:	00001021 	move	v0,zero
40001c78:	8fb40028 	lw	s4,40(sp)
40001c7c:	8fb30024 	lw	s3,36(sp)
40001c80:	8fb20020 	lw	s2,32(sp)
40001c84:	8fb1001c 	lw	s1,28(sp)
40001c88:	8fb00018 	lw	s0,24(sp)
40001c8c:	03e00008 	jr	ra
40001c90:	27bd0030 	addiu	sp,sp,48
40001c94:	24843594 	addiu	a0,a0,13716
40001c98:	0c0001e8 	jal	400007a0 <kprintf>
40001c9c:	ac403c94 	sw	zero,15508(v0)
40001ca0:	3c064000 	lui	a2,0x4000
40001ca4:	3c074000 	lui	a3,0x4000
40001ca8:	3c054000 	lui	a1,0x4000
40001cac:	3c044000 	lui	a0,0x4000
40001cb0:	24c635f8 	addiu	a2,a2,13816
40001cb4:	24e73604 	addiu	a3,a3,13828
40001cb8:	24a535ec 	addiu	a1,a1,13804
40001cbc:	0c0001e8 	jal	400007a0 <kprintf>
40001cc0:	248435d4 	addiu	a0,a0,13780
40001cc4:	3c044000 	lui	a0,0x4000
40001cc8:	0c0001e8 	jal	400007a0 <kprintf>
40001ccc:	24843610 	addiu	a0,a0,13840
40001cd0:	3c044000 	lui	a0,0x4000
40001cd4:	0c0001e8 	jal	400007a0 <kprintf>
40001cd8:	24843648 	addiu	a0,a0,13896
40001cdc:	3c044000 	lui	a0,0x4000
40001ce0:	3c054000 	lui	a1,0x4000
40001ce4:	24843688 	addiu	a0,a0,13960
40001ce8:	0c0001e8 	jal	400007a0 <kprintf>
40001cec:	24a5369c 	addiu	a1,a1,13980
40001cf0:	3c044000 	lui	a0,0x4000
40001cf4:	248436ac 	addiu	a0,a0,13996
40001cf8:	0c0001e8 	jal	400007a0 <kprintf>
40001cfc:	240561a8 	li	a1,25000
40001d00:	3c044000 	lui	a0,0x4000
40001d04:	3c050007 	lui	a1,0x7
40001d08:	248436c4 	addiu	a0,a0,14020
40001d0c:	0c0001e8 	jal	400007a0 <kprintf>
40001d10:	34a5a120 	ori	a1,a1,0xa120
40001d14:	3c044000 	lui	a0,0x4000
40001d18:	248436e0 	addiu	a0,a0,14048
40001d1c:	2405001e 	li	a1,30
40001d20:	0c0001e8 	jal	400007a0 <kprintf>
40001d24:	3c144000 	lui	s4,0x4000
40001d28:	0c0000c7 	jal	4000031c <_vm_init>
40001d2c:	00008821 	move	s1,zero
40001d30:	26943d5c 	addiu	s4,s4,15708
40001d34:	3c104008 	lui	s0,0x4008
40001d38:	2413ffff 	li	s3,-1
40001d3c:	2412001e 	li	s2,30
40001d40:	00111880 	sll	v1,s1,0x2
40001d44:	00111100 	sll	v0,s1,0x4
40001d48:	00621021 	addu	v0,v1,v0
40001d4c:	00511023 	subu	v0,v0,s1
40001d50:	000210c0 	sll	v0,v0,0x3
40001d54:	02821021 	addu	v0,s4,v0
40001d58:	24440002 	addiu	a0,v0,2
40001d5c:	00002821 	move	a1,zero
40001d60:	24060014 	li	a2,20
40001d64:	a4530000 	sh	s3,0(v0)
40001d68:	0c0003ba 	jal	40000ee8 <memset>
40001d6c:	ae02f068 	sw	v0,-3992(s0)
40001d70:	8e02f068 	lw	v0,-3992(s0)
40001d74:	26310001 	addiu	s1,s1,1
40001d78:	a0400016 	sb	zero,22(v0)
40001d7c:	a0400017 	sb	zero,23(v0)
40001d80:	a0400018 	sb	zero,24(v0)
40001d84:	ac40001c 	sw	zero,28(v0)
40001d88:	ac400020 	sw	zero,32(v0)
40001d8c:	ac400024 	sw	zero,36(v0)
40001d90:	ac400028 	sw	zero,40(v0)
40001d94:	a440002c 	sh	zero,44(v0)
40001d98:	a440002e 	sh	zero,46(v0)
40001d9c:	a4400030 	sh	zero,48(v0)
40001da0:	a4400032 	sh	zero,50(v0)
40001da4:	a4400034 	sh	zero,52(v0)
40001da8:	ac400088 	sw	zero,136(v0)
40001dac:	ac40008c 	sw	zero,140(v0)
40001db0:	ac400090 	sw	zero,144(v0)
40001db4:	1632ffe2 	bne	s1,s2,40001d40 <main+0x12c>
40001db8:	ac400094 	sw	zero,148(v0)
40001dbc:	3c054008 	lui	a1,0x4008
40001dc0:	a4a0f074 	sh	zero,-3980(a1)
40001dc4:	3c054008 	lui	a1,0x4008
40001dc8:	a4a0f084 	sh	zero,-3964(a1)
40001dcc:	3c054000 	lui	a1,0x4000
40001dd0:	3c034008 	lui	v1,0x4008
40001dd4:	24a52bfc 	addiu	a1,a1,11260
40001dd8:	2462f04c 	addiu	v0,v1,-4020
40001ddc:	ac65f04c 	sw	a1,-4020(v1)
40001de0:	3c034000 	lui	v1,0x4000
40001de4:	24632a90 	addiu	v1,v1,10896
40001de8:	ac430004 	sw	v1,4(v0)
40001dec:	3c114008 	lui	s1,0x4008
40001df0:	2404001e 	li	a0,30
40001df4:	ac400008 	sw	zero,8(v0)
40001df8:	ac40000c 	sw	zero,12(v0)
40001dfc:	ac400010 	sw	zero,16(v0)
40001e00:	ac400014 	sw	zero,20(v0)
40001e04:	0c0008e0 	jal	40002380 <hf_queue_create>
40001e08:	a620f064 	sh	zero,-3996(s1)
40001e0c:	3c034008 	lui	v1,0x4008
40001e10:	1040003f 	beqz	v0,40001f10 <main+0x2fc>
40001e14:	ac62f07c 	sw	v0,-3972(v1)
40001e18:	0c0008e0 	jal	40002380 <hf_queue_create>
40001e1c:	2404001e 	li	a0,30
40001e20:	3c034008 	lui	v1,0x4008
40001e24:	1040003e 	beqz	v0,40001f20 <main+0x30c>
40001e28:	ac62f088 	sw	v0,-3960(v1)
40001e2c:	0c0008e0 	jal	40002380 <hf_queue_create>
40001e30:	2404001e 	li	a0,30
40001e34:	3c034008 	lui	v1,0x4008
40001e38:	1040003d 	beqz	v0,40001f30 <main+0x31c>
40001e3c:	ac62f080 	sw	v0,-3968(v1)
40001e40:	0c0008e0 	jal	40002380 <hf_queue_create>
40001e44:	2404001e 	li	a0,30
40001e48:	3c034008 	lui	v1,0x4008
40001e4c:	1040002c 	beqz	v0,40001f00 <main+0x2ec>
40001e50:	ac62f070 	sw	v0,-3984(v1)
40001e54:	0c0000d3 	jal	4000034c <_sched_init>
40001e58:	24120400 	li	s2,1024
40001e5c:	0c0000ea 	jal	400003a8 <_irq_init>
40001e60:	00000000 	nop
40001e64:	0c0000d6 	jal	40000358 <_timer_init>
40001e68:	00000000 	nop
40001e6c:	0c00013a 	jal	400004e8 <_timer_reset>
40001e70:	00000000 	nop
40001e74:	3c044000 	lui	a0,0x4000
40001e78:	3c024000 	lui	v0,0x4000
40001e7c:	24841bcc 	addiu	a0,a0,7116
40001e80:	00002821 	move	a1,zero
40001e84:	00003021 	move	a2,zero
40001e88:	00003821 	move	a3,zero
40001e8c:	24423c28 	addiu	v0,v0,15400
40001e90:	afa20010 	sw	v0,16(sp)
40001e94:	0c000bec 	jal	40002fb0 <hf_spawn>
40001e98:	afb20014 	sw	s2,20(sp)
40001e9c:	3c044000 	lui	a0,0x4000
40001ea0:	3c024000 	lui	v0,0x4000
40001ea4:	2407000a 	li	a3,10
40001ea8:	24841ba8 	addiu	a0,a0,7080
40001eac:	24050064 	li	a1,100
40001eb0:	24060002 	li	a2,2
40001eb4:	244236f4 	addiu	v0,v0,14068
40001eb8:	afa20010 	sw	v0,16(sp)
40001ebc:	0c000bec 	jal	40002fb0 <hf_spawn>
40001ec0:	afb20014 	sw	s2,20(sp)
40001ec4:	0c0000ed 	jal	400003b4 <_device_init>
40001ec8:	00000000 	nop
40001ecc:	0c0000f0 	jal	400003c0 <_task_init>
40001ed0:	00000000 	nop
40001ed4:	0c0009a4 	jal	40002690 <app_main>
40001ed8:	00000000 	nop
40001edc:	8e04f068 	lw	a0,-3992(s0)
40001ee0:	9626f064 	lhu	a2,-3996(s1)
40001ee4:	24050001 	li	a1,1
40001ee8:	0c0000a6 	jal	40000298 <_restoreexec>
40001eec:	24840038 	addiu	a0,a0,56
40001ef0:	0c000867 	jal	4000219c <panic>
40001ef4:	00002021 	move	a0,zero
40001ef8:	0800071d 	j	40001c74 <main+0x60>
40001efc:	8fbf002c 	lw	ra,44(sp)
40001f00:	0c000867 	jal	4000219c <panic>
40001f04:	24040004 	li	a0,4
40001f08:	08000795 	j	40001e54 <main+0x240>
40001f0c:	00000000 	nop
40001f10:	0c000867 	jal	4000219c <panic>
40001f14:	24040004 	li	a0,4
40001f18:	08000786 	j	40001e18 <main+0x204>
40001f1c:	00000000 	nop
40001f20:	0c000867 	jal	4000219c <panic>
40001f24:	24040004 	li	a0,4
40001f28:	0800078b 	j	40001e2c <main+0x218>
40001f2c:	00000000 	nop
40001f30:	0c000867 	jal	4000219c <panic>
40001f34:	24040004 	li	a0,4
40001f38:	08000790 	j	40001e40 <main+0x22c>
40001f3c:	00000000 	nop

40001f40 <hf_free>:
40001f40:	27bdffe0 	addiu	sp,sp,-32
40001f44:	afb00014 	sw	s0,20(sp)
40001f48:	3c104000 	lui	s0,0x4000
40001f4c:	afb10018 	sw	s1,24(sp)
40001f50:	00808821 	move	s1,a0
40001f54:	afbf001c 	sw	ra,28(sp)
40001f58:	0c00084e 	jal	40002138 <hf_mtxlock>
40001f5c:	26043d58 	addiu	a0,s0,15704
40001f60:	3c024008 	lui	v0,0x4008
40001f64:	8e25fffc 	lw	a1,-4(s1)
40001f68:	8c43f078 	lw	v1,-3976(v0)
40001f6c:	3c044008 	lui	a0,0x4008
40001f70:	8c86f090 	lw	a2,-3952(a0)
40001f74:	2404fffe 	li	a0,-2
40001f78:	00a42024 	and	a0,a1,a0
40001f7c:	24630008 	addiu	v1,v1,8
40001f80:	ae24fffc 	sw	a0,-4(s1)
40001f84:	00641821 	addu	v1,v1,a0
40001f88:	3c054008 	lui	a1,0x4008
40001f8c:	26043d58 	addiu	a0,s0,15704
40001f90:	8fbf001c 	lw	ra,28(sp)
40001f94:	8fb10018 	lw	s1,24(sp)
40001f98:	8fb00014 	lw	s0,20(sp)
40001f9c:	27bd0020 	addiu	sp,sp,32
40001fa0:	aca6f08c 	sw	a2,-3956(a1)
40001fa4:	08000864 	j	40002190 <hf_mtxunlock>
40001fa8:	ac43f078 	sw	v1,-3976(v0)

40001fac <hf_malloc>:
40001fac:	27bdffe0 	addiu	sp,sp,-32
40001fb0:	afb20018 	sw	s2,24(sp)
40001fb4:	3c124000 	lui	s2,0x4000
40001fb8:	afb10014 	sw	s1,20(sp)
40001fbc:	2402fffc 	li	v0,-4
40001fc0:	24910003 	addiu	s1,a0,3
40001fc4:	26443d58 	addiu	a0,s2,15704
40001fc8:	afb00010 	sw	s0,16(sp)
40001fcc:	afbf001c 	sw	ra,28(sp)
40001fd0:	0c00084e 	jal	40002138 <hf_mtxlock>
40001fd4:	02228824 	and	s1,s1,v0
40001fd8:	3c074008 	lui	a3,0x4008
40001fdc:	8ce3f08c 	lw	v1,-3956(a3)
40001fe0:	2406fff8 	li	a2,-8
40001fe4:	26250008 	addiu	a1,s1,8
40001fe8:	00608021 	move	s0,v1
40001fec:	8c640000 	lw	a0,0(v1)
40001ff0:	10800035 	beqz	a0,400020c8 <hf_malloc+0x11c>
40001ff4:	00000000 	nop
40001ff8:	8c620004 	lw	v0,4(v1)
40001ffc:	30420001 	andi	v0,v0,0x1
40002000:	10400008 	beqz	v0,40002024 <hf_malloc+0x78>
40002004:	00000000 	nop
40002008:	08000805 	j	40002014 <hf_malloc+0x68>
4000200c:	00801821 	move	v1,a0
40002010:	8c630000 	lw	v1,0(v1)
40002014:	8c620004 	lw	v0,4(v1)
40002018:	30420001 	andi	v0,v0,0x1
4000201c:	1440fffc 	bnez	v0,40002010 <hf_malloc+0x64>
40002020:	00608021 	move	s0,v1
40002024:	14400009 	bnez	v0,4000204c <hf_malloc+0xa0>
40002028:	00d01023 	subu	v0,a2,s0
4000202c:	8c640000 	lw	a0,0(v1)
40002030:	10800006 	beqz	a0,4000204c <hf_malloc+0xa0>
40002034:	00d01023 	subu	v0,a2,s0
40002038:	8c820004 	lw	v0,4(a0)
4000203c:	30420001 	andi	v0,v0,0x1
40002040:	1040fffa 	beqz	v0,4000202c <hf_malloc+0x80>
40002044:	00801821 	move	v1,a0
40002048:	00d01023 	subu	v0,a2,s0
4000204c:	00621021 	addu	v0,v1,v0
40002050:	0045202b 	sltu	a0,v0,a1
40002054:	ae020004 	sw	v0,4(s0)
40002058:	1480ffe4 	bnez	a0,40001fec <hf_malloc+0x40>
4000205c:	ae030000 	sw	v1,0(s0)
40002060:	3c024008 	lui	v0,0x4008
40002064:	8c48f078 	lw	t0,-3976(v0)
40002068:	36240001 	ori	a0,s1,0x1
4000206c:	2409fff8 	li	t1,-8
40002070:	2406fffe 	li	a2,-2
40002074:	01314823 	subu	t1,t1,s1
40002078:	00863024 	and	a2,a0,a2
4000207c:	02052821 	addu	a1,s0,a1
40002080:	01263021 	addu	a2,t1,a2
40002084:	2508fff8 	addiu	t0,t0,-8
40002088:	acf0f08c 	sw	s0,-3956(a3)
4000208c:	ae040004 	sw	a0,4(s0)
40002090:	ae050000 	sw	a1,0(s0)
40002094:	01118823 	subu	s1,t0,s1
40002098:	aca30000 	sw	v1,0(a1)
4000209c:	aca60004 	sw	a2,4(a1)
400020a0:	26443d58 	addiu	a0,s2,15704
400020a4:	0c000864 	jal	40002190 <hf_mtxunlock>
400020a8:	ac51f078 	sw	s1,-3976(v0)
400020ac:	26020008 	addiu	v0,s0,8
400020b0:	8fbf001c 	lw	ra,28(sp)
400020b4:	8fb20018 	lw	s2,24(sp)
400020b8:	8fb10014 	lw	s1,20(sp)
400020bc:	8fb00010 	lw	s0,16(sp)
400020c0:	03e00008 	jr	ra
400020c4:	27bd0020 	addiu	sp,sp,32
400020c8:	0c000864 	jal	40002190 <hf_mtxunlock>
400020cc:	26443d58 	addiu	a0,s2,15704
400020d0:	0800082c 	j	400020b0 <hf_malloc+0x104>
400020d4:	00001021 	move	v0,zero

400020d8 <heapinit>:
400020d8:	00801021 	move	v0,a0
400020dc:	2403fffc 	li	v1,-4
400020e0:	24a40003 	addiu	a0,a1,3
400020e4:	00831824 	and	v1,a0,v1
400020e8:	00452821 	addu	a1,v0,a1
400020ec:	2463fff0 	addiu	v1,v1,-16
400020f0:	24a4fff8 	addiu	a0,a1,-8
400020f4:	ac430004 	sw	v1,4(v0)
400020f8:	aca0fffc 	sw	zero,-4(a1)
400020fc:	ac440000 	sw	a0,0(v0)
40002100:	8c430004 	lw	v1,4(v0)
40002104:	aca0fff8 	sw	zero,-8(a1)
40002108:	3c054008 	lui	a1,0x4008
4000210c:	aca2f090 	sw	v0,-3952(a1)
40002110:	3c044000 	lui	a0,0x4000
40002114:	3c054008 	lui	a1,0x4008
40002118:	aca2f08c 	sw	v0,-3956(a1)
4000211c:	24843d58 	addiu	a0,a0,15704
40002120:	3c024008 	lui	v0,0x4008
40002124:	0800084b 	j	4000212c <hf_mtxinit>
40002128:	ac43f078 	sw	v1,-3976(v0)

4000212c <hf_mtxinit>:
4000212c:	ac800000 	sw	zero,0(a0)
40002130:	03e00008 	jr	ra
40002134:	00000000 	nop

40002138 <hf_mtxlock>:
40002138:	27bdffd8 	addiu	sp,sp,-40
4000213c:	afb10020 	sw	s1,32(sp)
40002140:	afb0001c 	sw	s0,28(sp)
40002144:	afbf0024 	sw	ra,36(sp)
40002148:	00808821 	move	s1,a0
4000214c:	24100001 	li	s0,1
40002150:	0c000082 	jal	40000208 <_interrupt_set>
40002154:	00002021 	move	a0,zero
40002158:	afa20014 	sw	v0,20(sp)
4000215c:	8e220000 	lw	v0,0(s1)
40002160:	afa20010 	sw	v0,16(sp)
40002164:	ae300000 	sw	s0,0(s1)
40002168:	8fa40014 	lw	a0,20(sp)
4000216c:	0c000082 	jal	40000208 <_interrupt_set>
40002170:	00000000 	nop
40002174:	8fa20010 	lw	v0,16(sp)
40002178:	1050fff5 	beq	v0,s0,40002150 <hf_mtxlock+0x18>
4000217c:	8fbf0024 	lw	ra,36(sp)
40002180:	8fb10020 	lw	s1,32(sp)
40002184:	8fb0001c 	lw	s0,28(sp)
40002188:	03e00008 	jr	ra
4000218c:	27bd0028 	addiu	sp,sp,40

40002190 <hf_mtxunlock>:
40002190:	ac800000 	sw	zero,0(a0)
40002194:	03e00008 	jr	ra
40002198:	00000000 	nop

4000219c <panic>:
4000219c:	27bdffe8 	addiu	sp,sp,-24
400021a0:	afb00010 	sw	s0,16(sp)
400021a4:	00808021 	move	s0,a0
400021a8:	afbf0014 	sw	ra,20(sp)
400021ac:	0c000082 	jal	40000208 <_interrupt_set>
400021b0:	00002021 	move	a0,zero
400021b4:	3c024008 	lui	v0,0x4008
400021b8:	9445f064 	lhu	a1,-3996(v0)
400021bc:	3c044000 	lui	a0,0x4000
400021c0:	0c0001e8 	jal	400007a0 <kprintf>
400021c4:	24843704 	addiu	a0,a0,14084
400021c8:	2e02000f 	sltiu	v0,s0,15
400021cc:	1440000b 	bnez	v0,400021fc <panic+0x60>
400021d0:	3c024000 	lui	v0,0x4000
400021d4:	3c044000 	lui	a0,0x4000
400021d8:	0c0001e8 	jal	400007a0 <kprintf>
400021dc:	2484389c 	addiu	a0,a0,14492
400021e0:	3c044000 	lui	a0,0x4000
400021e4:	0c000534 	jal	400014d0 <printf>
400021e8:	248438ac 	addiu	a0,a0,14508
400021ec:	0c00014d 	jal	40000534 <_panic>
400021f0:	00000000 	nop
400021f4:	0800087d 	j	400021f4 <panic+0x58>
400021f8:	00000000 	nop
400021fc:	00108080 	sll	s0,s0,0x2
40002200:	244238c0 	addiu	v0,v0,14528
40002204:	00501021 	addu	v0,v0,s0
40002208:	8c420000 	lw	v0,0(v0)
4000220c:	00400008 	jr	v0
40002210:	00000000 	nop
40002214:	3c044000 	lui	a0,0x4000
40002218:	0c0001e8 	jal	400007a0 <kprintf>
4000221c:	24843760 	addiu	a0,a0,14176
40002220:	08000879 	j	400021e4 <panic+0x48>
40002224:	3c044000 	lui	a0,0x4000
40002228:	3c044000 	lui	a0,0x4000
4000222c:	0c0001e8 	jal	400007a0 <kprintf>
40002230:	24843888 	addiu	a0,a0,14472
40002234:	08000879 	j	400021e4 <panic+0x48>
40002238:	3c044000 	lui	a0,0x4000
4000223c:	3c044000 	lui	a0,0x4000
40002240:	0c0001e8 	jal	400007a0 <kprintf>
40002244:	2484386c 	addiu	a0,a0,14444
40002248:	08000879 	j	400021e4 <panic+0x48>
4000224c:	3c044000 	lui	a0,0x4000
40002250:	3c044000 	lui	a0,0x4000
40002254:	0c0001e8 	jal	400007a0 <kprintf>
40002258:	24843848 	addiu	a0,a0,14408
4000225c:	08000879 	j	400021e4 <panic+0x48>
40002260:	3c044000 	lui	a0,0x4000
40002264:	3c044000 	lui	a0,0x4000
40002268:	0c0001e8 	jal	400007a0 <kprintf>
4000226c:	24843828 	addiu	a0,a0,14376
40002270:	08000879 	j	400021e4 <panic+0x48>
40002274:	3c044000 	lui	a0,0x4000
40002278:	3c044000 	lui	a0,0x4000
4000227c:	0c0001e8 	jal	400007a0 <kprintf>
40002280:	24843808 	addiu	a0,a0,14344
40002284:	08000879 	j	400021e4 <panic+0x48>
40002288:	3c044000 	lui	a0,0x4000
4000228c:	3c044000 	lui	a0,0x4000
40002290:	0c0001e8 	jal	400007a0 <kprintf>
40002294:	248437f0 	addiu	a0,a0,14320
40002298:	08000879 	j	400021e4 <panic+0x48>
4000229c:	3c044000 	lui	a0,0x4000
400022a0:	3c044000 	lui	a0,0x4000
400022a4:	0c0001e8 	jal	400007a0 <kprintf>
400022a8:	248437bc 	addiu	a0,a0,14268
400022ac:	08000879 	j	400021e4 <panic+0x48>
400022b0:	3c044000 	lui	a0,0x4000
400022b4:	3c044000 	lui	a0,0x4000
400022b8:	0c0001e8 	jal	400007a0 <kprintf>
400022bc:	248437d4 	addiu	a0,a0,14292
400022c0:	08000879 	j	400021e4 <panic+0x48>
400022c4:	3c044000 	lui	a0,0x4000
400022c8:	3c044000 	lui	a0,0x4000
400022cc:	0c0001e8 	jal	400007a0 <kprintf>
400022d0:	248437a4 	addiu	a0,a0,14244
400022d4:	08000879 	j	400021e4 <panic+0x48>
400022d8:	3c044000 	lui	a0,0x4000
400022dc:	3c044000 	lui	a0,0x4000
400022e0:	0c0001e8 	jal	400007a0 <kprintf>
400022e4:	24843794 	addiu	a0,a0,14228
400022e8:	08000879 	j	400021e4 <panic+0x48>
400022ec:	3c044000 	lui	a0,0x4000
400022f0:	3c044000 	lui	a0,0x4000
400022f4:	0c0001e8 	jal	400007a0 <kprintf>
400022f8:	24843774 	addiu	a0,a0,14196
400022fc:	08000879 	j	400021e4 <panic+0x48>
40002300:	3c044000 	lui	a0,0x4000
40002304:	3c044000 	lui	a0,0x4000
40002308:	0c0001e8 	jal	400007a0 <kprintf>
4000230c:	24843750 	addiu	a0,a0,14160
40002310:	08000879 	j	400021e4 <panic+0x48>
40002314:	3c044000 	lui	a0,0x4000
40002318:	3c044000 	lui	a0,0x4000
4000231c:	0c0001e8 	jal	400007a0 <kprintf>
40002320:	24843734 	addiu	a0,a0,14132
40002324:	08000879 	j	400021e4 <panic+0x48>
40002328:	3c044000 	lui	a0,0x4000
4000232c:	3c044000 	lui	a0,0x4000
40002330:	0c0001e8 	jal	400007a0 <kprintf>
40002334:	24843720 	addiu	a0,a0,14112
40002338:	08000879 	j	400021e4 <panic+0x48>
4000233c:	3c044000 	lui	a0,0x4000

40002340 <hf_schedlock>:
40002340:	27bdffe8 	addiu	sp,sp,-24
40002344:	afbf0014 	sw	ra,20(sp)
40002348:	afb00010 	sw	s0,16(sp)
4000234c:	0c000116 	jal	40000458 <_read_us>
40002350:	00808021 	move	s0,a0
40002354:	3c044000 	lui	a0,0x4000
40002358:	00602821 	move	a1,v1
4000235c:	0c000265 	jal	40000994 <dprintf>
40002360:	248438fc 	addiu	a0,a0,14588
40002364:	8fbf0014 	lw	ra,20(sp)
40002368:	2e100001 	sltiu	s0,s0,1
4000236c:	3c024008 	lui	v0,0x4008
40002370:	a450f084 	sh	s0,-3964(v0)
40002374:	8fb00010 	lw	s0,16(sp)
40002378:	03e00008 	jr	ra
4000237c:	27bd0018 	addiu	sp,sp,24

40002380 <hf_queue_create>:
40002380:	27bdffe0 	addiu	sp,sp,-32
40002384:	afb10018 	sw	s1,24(sp)
40002388:	00808821 	move	s1,a0
4000238c:	afb00014 	sw	s0,20(sp)
40002390:	afbf001c 	sw	ra,28(sp)
40002394:	0c0007eb 	jal	40001fac <hf_malloc>
40002398:	24040014 	li	a0,20
4000239c:	1040000a 	beqz	v0,400023c8 <hf_queue_create+0x48>
400023a0:	00408021 	move	s0,v0
400023a4:	26240001 	addiu	a0,s1,1
400023a8:	ac440000 	sw	a0,0(v0)
400023ac:	0c0007eb 	jal	40001fac <hf_malloc>
400023b0:	00042080 	sll	a0,a0,0x2
400023b4:	1040000a 	beqz	v0,400023e0 <hf_queue_create+0x60>
400023b8:	ae020010 	sw	v0,16(s0)
400023bc:	ae00000c 	sw	zero,12(s0)
400023c0:	ae000008 	sw	zero,8(s0)
400023c4:	ae000004 	sw	zero,4(s0)
400023c8:	8fbf001c 	lw	ra,28(sp)
400023cc:	02001021 	move	v0,s0
400023d0:	8fb10018 	lw	s1,24(sp)
400023d4:	8fb00014 	lw	s0,20(sp)
400023d8:	03e00008 	jr	ra
400023dc:	27bd0020 	addiu	sp,sp,32
400023e0:	0c0007d0 	jal	40001f40 <hf_free>
400023e4:	02002021 	move	a0,s0
400023e8:	080008f2 	j	400023c8 <hf_queue_create+0x48>
400023ec:	00008021 	move	s0,zero

400023f0 <hf_queue_count>:
400023f0:	03e00008 	jr	ra
400023f4:	8c820004 	lw	v0,4(a0)

400023f8 <hf_queue_addtail>:
400023f8:	8c820000 	lw	v0,0(a0)
400023fc:	27bdffd8 	addiu	sp,sp,-40
40002400:	afb30020 	sw	s3,32(sp)
40002404:	afb10018 	sw	s1,24(sp)
40002408:	afb00014 	sw	s0,20(sp)
4000240c:	afbf0024 	sw	ra,36(sp)
40002410:	afb2001c 	sw	s2,28(sp)
40002414:	00808021 	move	s0,a0
40002418:	00a09821 	move	s3,a1
4000241c:	10400010 	beqz	v0,40002460 <hf_queue_addtail+0x68>
40002420:	2411ffff 	li	s1,-1
40002424:	8c92000c 	lw	s2,12(a0)
40002428:	00402821 	move	a1,v0
4000242c:	0c000584 	jal	40001610 <__modsi3>
40002430:	26440001 	addiu	a0,s2,1
40002434:	8e030008 	lw	v1,8(s0)
40002438:	10620009 	beq	v1,v0,40002460 <hf_queue_addtail+0x68>
4000243c:	00129080 	sll	s2,s2,0x2
40002440:	8e030004 	lw	v1,4(s0)
40002444:	8e040010 	lw	a0,16(s0)
40002448:	24630001 	addiu	v1,v1,1
4000244c:	00929021 	addu	s2,a0,s2
40002450:	ae530000 	sw	s3,0(s2)
40002454:	00008821 	move	s1,zero
40002458:	ae02000c 	sw	v0,12(s0)
4000245c:	ae030004 	sw	v1,4(s0)
40002460:	8fbf0024 	lw	ra,36(sp)
40002464:	02201021 	move	v0,s1
40002468:	8fb30020 	lw	s3,32(sp)
4000246c:	8fb2001c 	lw	s2,28(sp)
40002470:	8fb10018 	lw	s1,24(sp)
40002474:	8fb00014 	lw	s0,20(sp)
40002478:	03e00008 	jr	ra
4000247c:	27bd0028 	addiu	sp,sp,40

40002480 <hf_queue_remhead>:
40002480:	8c850000 	lw	a1,0(a0)
40002484:	27bdffe0 	addiu	sp,sp,-32
40002488:	afb10018 	sw	s1,24(sp)
4000248c:	afb00014 	sw	s0,20(sp)
40002490:	afbf001c 	sw	ra,28(sp)
40002494:	00808021 	move	s0,a0
40002498:	10a0000e 	beqz	a1,400024d4 <hf_queue_remhead+0x54>
4000249c:	00008821 	move	s1,zero
400024a0:	8c840008 	lw	a0,8(a0)
400024a4:	8e02000c 	lw	v0,12(s0)
400024a8:	1082000a 	beq	a0,v0,400024d4 <hf_queue_remhead+0x54>
400024ac:	00041080 	sll	v0,a0,0x2
400024b0:	8e030010 	lw	v1,16(s0)
400024b4:	24840001 	addiu	a0,a0,1
400024b8:	00621021 	addu	v0,v1,v0
400024bc:	0c000584 	jal	40001610 <__modsi3>
400024c0:	8c510000 	lw	s1,0(v0)
400024c4:	8e030004 	lw	v1,4(s0)
400024c8:	ae020008 	sw	v0,8(s0)
400024cc:	2463ffff 	addiu	v1,v1,-1
400024d0:	ae030004 	sw	v1,4(s0)
400024d4:	8fbf001c 	lw	ra,28(sp)
400024d8:	02201021 	move	v0,s1
400024dc:	8fb00014 	lw	s0,20(sp)
400024e0:	8fb10018 	lw	s1,24(sp)
400024e4:	03e00008 	jr	ra
400024e8:	27bd0020 	addiu	sp,sp,32

400024ec <hf_queue_get>:
400024ec:	8c830000 	lw	v1,0(a0)
400024f0:	27bdffe8 	addiu	sp,sp,-24
400024f4:	afb00010 	sw	s0,16(sp)
400024f8:	afbf0014 	sw	ra,20(sp)
400024fc:	00808021 	move	s0,a0
40002500:	1060000f 	beqz	v1,40002540 <hf_queue_get+0x54>
40002504:	00001021 	move	v0,zero
40002508:	8c840004 	lw	a0,4(a0)
4000250c:	00a4202a 	slt	a0,a1,a0
40002510:	1080000c 	beqz	a0,40002544 <hf_queue_get+0x58>
40002514:	8fbf0014 	lw	ra,20(sp)
40002518:	8e040008 	lw	a0,8(s0)
4000251c:	8e06000c 	lw	a2,12(s0)
40002520:	10860008 	beq	a0,a2,40002544 <hf_queue_get+0x58>
40002524:	00a42021 	addu	a0,a1,a0
40002528:	0c000584 	jal	40001610 <__modsi3>
4000252c:	00602821 	move	a1,v1
40002530:	8e030010 	lw	v1,16(s0)
40002534:	00021080 	sll	v0,v0,0x2
40002538:	00621821 	addu	v1,v1,v0
4000253c:	8c620000 	lw	v0,0(v1)
40002540:	8fbf0014 	lw	ra,20(sp)
40002544:	8fb00010 	lw	s0,16(sp)
40002548:	03e00008 	jr	ra
4000254c:	27bd0018 	addiu	sp,sp,24

40002550 <hf_queue_swap>:
40002550:	27bdffd8 	addiu	sp,sp,-40
40002554:	afb10014 	sw	s1,20(sp)
40002558:	8c910000 	lw	s1,0(a0)
4000255c:	afb3001c 	sw	s3,28(sp)
40002560:	afb00010 	sw	s0,16(sp)
40002564:	afbf0024 	sw	ra,36(sp)
40002568:	afb40020 	sw	s4,32(sp)
4000256c:	afb20018 	sw	s2,24(sp)
40002570:	00808021 	move	s0,a0
40002574:	00c09821 	move	s3,a2
40002578:	1220001c 	beqz	s1,400025ec <hf_queue_swap+0x9c>
4000257c:	2402ffff 	li	v0,-1
40002580:	8c830004 	lw	v1,4(a0)
40002584:	00a3202a 	slt	a0,a1,v1
40002588:	10800018 	beqz	a0,400025ec <hf_queue_swap+0x9c>
4000258c:	00c3182a 	slt	v1,a2,v1
40002590:	10600017 	beqz	v1,400025f0 <hf_queue_swap+0xa0>
40002594:	8fbf0024 	lw	ra,36(sp)
40002598:	8e120008 	lw	s2,8(s0)
4000259c:	8e03000c 	lw	v1,12(s0)
400025a0:	12430013 	beq	s2,v1,400025f0 <hf_queue_swap+0xa0>
400025a4:	00b22021 	addu	a0,a1,s2
400025a8:	8e140010 	lw	s4,16(s0)
400025ac:	0c000584 	jal	40001610 <__modsi3>
400025b0:	02202821 	move	a1,s1
400025b4:	00021080 	sll	v0,v0,0x2
400025b8:	02202821 	move	a1,s1
400025bc:	02722021 	addu	a0,s3,s2
400025c0:	0c000584 	jal	40001610 <__modsi3>
400025c4:	02828821 	addu	s1,s4,v0
400025c8:	00021880 	sll	v1,v0,0x2
400025cc:	0283a021 	addu	s4,s4,v1
400025d0:	8e850000 	lw	a1,0(s4)
400025d4:	8e240000 	lw	a0,0(s1)
400025d8:	00001021 	move	v0,zero
400025dc:	ae250000 	sw	a1,0(s1)
400025e0:	8e050010 	lw	a1,16(s0)
400025e4:	00a31821 	addu	v1,a1,v1
400025e8:	ac640000 	sw	a0,0(v1)
400025ec:	8fbf0024 	lw	ra,36(sp)
400025f0:	8fb40020 	lw	s4,32(sp)
400025f4:	8fb3001c 	lw	s3,28(sp)
400025f8:	8fb20018 	lw	s2,24(sp)
400025fc:	8fb10014 	lw	s1,20(sp)
40002600:	8fb00010 	lw	s0,16(sp)
40002604:	03e00008 	jr	ra
40002608:	27bd0028 	addiu	sp,sp,40

4000260c <task>:
4000260c:	27bdffd0 	addiu	sp,sp,-48
40002610:	afb20020 	sw	s2,32(sp)
40002614:	afb00018 	sw	s0,24(sp)
40002618:	afbf002c 	sw	ra,44(sp)
4000261c:	afb40028 	sw	s4,40(sp)
40002620:	afb30024 	sw	s3,36(sp)
40002624:	afb1001c 	sw	s1,28(sp)
40002628:	0c000b91 	jal	40002e44 <hf_selfid>
4000262c:	3c124000 	lui	s2,0x4000
40002630:	00408021 	move	s0,v0
40002634:	26523960 	addiu	s2,s2,14688
40002638:	0c000bad 	jal	40002eb4 <hf_jobs>
4000263c:	02002021 	move	a0,s0
40002640:	0c000b9f 	jal	40002e7c <hf_selfname>
40002644:	00408821 	move	s1,v0
40002648:	02002021 	move	a0,s0
4000264c:	0c000bad 	jal	40002eb4 <hf_jobs>
40002650:	0040a021 	move	s4,v0
40002654:	00409821 	move	s3,v0
40002658:	0c000bd0 	jal	40002f40 <hf_dlm>
4000265c:	02002021 	move	a0,s0
40002660:	02402021 	move	a0,s2
40002664:	02802821 	move	a1,s4
40002668:	02003021 	move	a2,s0
4000266c:	02603821 	move	a3,s3
40002670:	0c000534 	jal	400014d0 <printf>
40002674:	afa20010 	sw	v0,16(sp)
40002678:	0c000bad 	jal	40002eb4 <hf_jobs>
4000267c:	02002021 	move	a0,s0
40002680:	1051fffd 	beq	v0,s1,40002678 <task+0x6c>
40002684:	00000000 	nop
40002688:	0800098e 	j	40002638 <task+0x2c>
4000268c:	00000000 	nop

40002690 <app_main>:
40002690:	27bdffd8 	addiu	sp,sp,-40
40002694:	afb10020 	sw	s1,32(sp)
40002698:	3c024000 	lui	v0,0x4000
4000269c:	3c114000 	lui	s1,0x4000
400026a0:	afb0001c 	sw	s0,28(sp)
400026a4:	2624260c 	addiu	a0,s1,9740
400026a8:	24100800 	li	s0,2048
400026ac:	24050004 	li	a1,4
400026b0:	24060001 	li	a2,1
400026b4:	24070004 	li	a3,4
400026b8:	24423974 	addiu	v0,v0,14708
400026bc:	afbf0024 	sw	ra,36(sp)
400026c0:	afb00014 	sw	s0,20(sp)
400026c4:	0c000bec 	jal	40002fb0 <hf_spawn>
400026c8:	afa20010 	sw	v0,16(sp)
400026cc:	3c024000 	lui	v0,0x4000
400026d0:	2624260c 	addiu	a0,s1,9740
400026d4:	24050008 	li	a1,8
400026d8:	24060002 	li	a2,2
400026dc:	24070008 	li	a3,8
400026e0:	2442397c 	addiu	v0,v0,14716
400026e4:	afb00014 	sw	s0,20(sp)
400026e8:	0c000bec 	jal	40002fb0 <hf_spawn>
400026ec:	afa20010 	sw	v0,16(sp)
400026f0:	3c024000 	lui	v0,0x4000
400026f4:	2624260c 	addiu	a0,s1,9740
400026f8:	24423984 	addiu	v0,v0,14724
400026fc:	2405000c 	li	a1,12
40002700:	24060003 	li	a2,3
40002704:	2407000c 	li	a3,12
40002708:	afb00014 	sw	s0,20(sp)
4000270c:	0c000bec 	jal	40002fb0 <hf_spawn>
40002710:	afa20010 	sw	v0,16(sp)
40002714:	8fbf0024 	lw	ra,36(sp)
40002718:	8fb10020 	lw	s1,32(sp)
4000271c:	8fb0001c 	lw	s0,28(sp)
40002720:	03e00008 	jr	ra
40002724:	27bd0028 	addiu	sp,sp,40

40002728 <run_queue_next>:
40002728:	27bdffe0 	addiu	sp,sp,-32
4000272c:	afb00014 	sw	s0,20(sp)
40002730:	3c104008 	lui	s0,0x4008
40002734:	8e04f07c 	lw	a0,-3972(s0)
40002738:	afb10018 	sw	s1,24(sp)
4000273c:	afbf001c 	sw	ra,28(sp)
40002740:	0c000920 	jal	40002480 <hf_queue_remhead>
40002744:	3c114008 	lui	s1,0x4008
40002748:	1040000f 	beqz	v0,40002788 <run_queue_next+0x60>
4000274c:	ae22f068 	sw	v0,-3992(s1)
40002750:	8e04f07c 	lw	a0,-3972(s0)
40002754:	0c0008fe 	jal	400023f8 <hf_queue_addtail>
40002758:	00402821 	move	a1,v0
4000275c:	14400005 	bnez	v0,40002774 <run_queue_next+0x4c>
40002760:	8fbf001c 	lw	ra,28(sp)
40002764:	8fb10018 	lw	s1,24(sp)
40002768:	8fb00014 	lw	s0,20(sp)
4000276c:	03e00008 	jr	ra
40002770:	27bd0020 	addiu	sp,sp,32
40002774:	8fb10018 	lw	s1,24(sp)
40002778:	8fb00014 	lw	s0,20(sp)
4000277c:	24040009 	li	a0,9
40002780:	08000867 	j	4000219c <panic>
40002784:	27bd0020 	addiu	sp,sp,32
40002788:	0c000867 	jal	4000219c <panic>
4000278c:	24040005 	li	a0,5
40002790:	080009d4 	j	40002750 <run_queue_next+0x28>
40002794:	8e22f068 	lw	v0,-3992(s1)

40002798 <process_delay_queue>:
40002798:	27bdffd0 	addiu	sp,sp,-48
4000279c:	afb1001c 	sw	s1,28(sp)
400027a0:	3c114008 	lui	s1,0x4008
400027a4:	8e24f088 	lw	a0,-3960(s1)
400027a8:	afb20020 	sw	s2,32(sp)
400027ac:	afbf002c 	sw	ra,44(sp)
400027b0:	afb40028 	sw	s4,40(sp)
400027b4:	afb30024 	sw	s3,36(sp)
400027b8:	0c0008fc 	jal	400023f0 <hf_queue_count>
400027bc:	afb00018 	sw	s0,24(sp)
400027c0:	18400020 	blez	v0,40002844 <process_delay_queue+0xac>
400027c4:	00409021 	move	s2,v0
400027c8:	00008021 	move	s0,zero
400027cc:	3c144008 	lui	s4,0x4008
400027d0:	080009fd 	j	400027f4 <process_delay_queue+0x5c>
400027d4:	3c134008 	lui	s3,0x4008
400027d8:	0c0008fe 	jal	400023f8 <hf_queue_addtail>
400027dc:	00402821 	move	a1,v0
400027e0:	14400029 	bnez	v0,40002888 <process_delay_queue+0xf0>
400027e4:	00000000 	nop
400027e8:	26100001 	addiu	s0,s0,1
400027ec:	12120016 	beq	s0,s2,40002848 <process_delay_queue+0xb0>
400027f0:	8fbf002c 	lw	ra,44(sp)
400027f4:	0c000920 	jal	40002480 <hf_queue_remhead>
400027f8:	8e24f088 	lw	a0,-3960(s1)
400027fc:	10400026 	beqz	v0,40002898 <process_delay_queue+0x100>
40002800:	00000000 	nop
40002804:	8c43001c 	lw	v1,28(v0)
40002808:	2463ffff 	addiu	v1,v1,-1
4000280c:	14600015 	bnez	v1,40002864 <process_delay_queue+0xcc>
40002810:	ac43001c 	sw	v1,28(v0)
40002814:	9443002c 	lhu	v1,44(v0)
40002818:	1460ffef 	bnez	v1,400027d8 <process_delay_queue+0x40>
4000281c:	8e64f080 	lw	a0,-3968(s3)
40002820:	8e84f07c 	lw	a0,-3972(s4)
40002824:	0c0008fe 	jal	400023f8 <hf_queue_addtail>
40002828:	00402821 	move	a1,v0
4000282c:	1040ffee 	beqz	v0,400027e8 <process_delay_queue+0x50>
40002830:	24040009 	li	a0,9
40002834:	0c000867 	jal	4000219c <panic>
40002838:	26100001 	addiu	s0,s0,1
4000283c:	1612ffed 	bne	s0,s2,400027f4 <process_delay_queue+0x5c>
40002840:	00000000 	nop
40002844:	8fbf002c 	lw	ra,44(sp)
40002848:	8fb40028 	lw	s4,40(sp)
4000284c:	8fb30024 	lw	s3,36(sp)
40002850:	8fb20020 	lw	s2,32(sp)
40002854:	8fb1001c 	lw	s1,28(sp)
40002858:	8fb00018 	lw	s0,24(sp)
4000285c:	03e00008 	jr	ra
40002860:	27bd0030 	addiu	sp,sp,48
40002864:	8e24f088 	lw	a0,-3960(s1)
40002868:	0c0008fe 	jal	400023f8 <hf_queue_addtail>
4000286c:	00402821 	move	a1,v0
40002870:	1040ffdd 	beqz	v0,400027e8 <process_delay_queue+0x50>
40002874:	00000000 	nop
40002878:	0c000867 	jal	4000219c <panic>
4000287c:	2404000a 	li	a0,10
40002880:	080009fb 	j	400027ec <process_delay_queue+0x54>
40002884:	26100001 	addiu	s0,s0,1
40002888:	0c000867 	jal	4000219c <panic>
4000288c:	2404000b 	li	a0,11
40002890:	080009fb 	j	400027ec <process_delay_queue+0x54>
40002894:	26100001 	addiu	s0,s0,1
40002898:	24040007 	li	a0,7
4000289c:	0c000867 	jal	4000219c <panic>
400028a0:	afa20010 	sw	v0,16(sp)
400028a4:	08000a01 	j	40002804 <process_delay_queue+0x6c>
400028a8:	8fa20010 	lw	v0,16(sp)

400028ac <dispatch_isr>:
400028ac:	27bdffd0 	addiu	sp,sp,-48
400028b0:	afbf002c 	sw	ra,44(sp)
400028b4:	afb40028 	sw	s4,40(sp)
400028b8:	afb30024 	sw	s3,36(sp)
400028bc:	afb20020 	sw	s2,32(sp)
400028c0:	afb1001c 	sw	s1,28(sp)
400028c4:	0c000116 	jal	40000458 <_read_us>
400028c8:	afb00018 	sw	s0,24(sp)
400028cc:	3c044000 	lui	a0,0x4000
400028d0:	00602821 	move	a1,v1
400028d4:	0c000265 	jal	40000994 <dprintf>
400028d8:	2484398c 	addiu	a0,a0,14732
400028dc:	0c00013a 	jal	400004e8 <_timer_reset>
400028e0:	00000000 	nop
400028e4:	3c024008 	lui	v0,0x4008
400028e8:	9442f084 	lhu	v0,-3964(v0)
400028ec:	14400009 	bnez	v0,40002914 <dispatch_isr+0x68>
400028f0:	3c024008 	lui	v0,0x4008
400028f4:	8fbf002c 	lw	ra,44(sp)
400028f8:	8fb40028 	lw	s4,40(sp)
400028fc:	8fb30024 	lw	s3,36(sp)
40002900:	8fb20020 	lw	s2,32(sp)
40002904:	8fb1001c 	lw	s1,28(sp)
40002908:	8fb00018 	lw	s0,24(sp)
4000290c:	03e00008 	jr	ra
40002910:	27bd0030 	addiu	sp,sp,48
40002914:	9443f064 	lhu	v1,-3996(v0)
40002918:	00032080 	sll	a0,v1,0x2
4000291c:	00031100 	sll	v0,v1,0x4
40002920:	00821021 	addu	v0,a0,v0
40002924:	00431823 	subu	v1,v0,v1
40002928:	3c024000 	lui	v0,0x4000
4000292c:	000318c0 	sll	v1,v1,0x3
40002930:	24423d5c 	addiu	v0,v0,15708
40002934:	00431021 	addu	v0,v0,v1
40002938:	24440038 	addiu	a0,v0,56
4000293c:	3c034008 	lui	v1,0x4008
40002940:	0c000088 	jal	40000220 <setjmp>
40002944:	ac62f068 	sw	v0,-3992(v1)
40002948:	1440ffea 	bnez	v0,400028f4 <dispatch_isr+0x48>
4000294c:	3c024008 	lui	v0,0x4008
40002950:	8c42f068 	lw	v0,-3992(v0)
40002954:	24030002 	li	v1,2
40002958:	90440016 	lbu	a0,22(v0)
4000295c:	1083004a 	beq	a0,v1,40002a88 <dispatch_isr+0x1dc>
40002960:	24030001 	li	v1,1
40002964:	8c42008c 	lw	v0,140(v0)
40002968:	8c430000 	lw	v1,0(v0)
4000296c:	3c02b00b 	lui	v0,0xb00b
40002970:	3442b00b 	ori	v0,v0,0xb00b
40002974:	10620004 	beq	v1,v0,40002988 <dispatch_isr+0xdc>
40002978:	3c024008 	lui	v0,0x4008
4000297c:	0c000867 	jal	4000219c <panic>
40002980:	24040002 	li	a0,2
40002984:	3c024008 	lui	v0,0x4008
40002988:	9442f074 	lhu	v0,-3980(v0)
4000298c:	10400034 	beqz	v0,40002a60 <dispatch_isr+0x1b4>
40002990:	00000000 	nop
40002994:	0c0009e6 	jal	40002798 <process_delay_queue>
40002998:	3c114008 	lui	s1,0x4008
4000299c:	8e22f04c 	lw	v0,-4020(s1)
400029a0:	0040f809 	jalr	v0
400029a4:	3c104008 	lui	s0,0x4008
400029a8:	3054ffff 	andi	s4,v0,0xffff
400029ac:	16800007 	bnez	s4,400029cc <dispatch_isr+0x120>
400029b0:	a614f064 	sh	s4,-3996(s0)
400029b4:	2631f04c 	addiu	s1,s1,-4020
400029b8:	8e220004 	lw	v0,4(s1)
400029bc:	0040f809 	jalr	v0
400029c0:	00000000 	nop
400029c4:	3054ffff 	andi	s4,v0,0xffff
400029c8:	a614f064 	sh	s4,-3996(s0)
400029cc:	3c034008 	lui	v1,0x4008
400029d0:	3c104008 	lui	s0,0x4008
400029d4:	2463f04c 	addiu	v1,v1,-4020
400029d8:	8e02f068 	lw	v0,-3992(s0)
400029dc:	8c64000c 	lw	a0,12(v1)
400029e0:	24050002 	li	a1,2
400029e4:	9453002c 	lhu	s3,44(v0)
400029e8:	9452002e 	lhu	s2,46(v0)
400029ec:	24840001 	addiu	a0,a0,1
400029f0:	94510030 	lhu	s1,48(v0)
400029f4:	a0450016 	sb	a1,22(v0)
400029f8:	0c000116 	jal	40000458 <_read_us>
400029fc:	ac64000c 	sw	a0,12(v1)
40002a00:	3c044000 	lui	a0,0x4000
40002a04:	02403821 	move	a3,s2
40002a08:	02802821 	move	a1,s4
40002a0c:	02603021 	move	a2,s3
40002a10:	2484399c 	addiu	a0,a0,14748
40002a14:	afa30014 	sw	v1,20(sp)
40002a18:	0c000265 	jal	40000994 <dprintf>
40002a1c:	afb10010 	sw	s1,16(sp)
40002a20:	8e04f068 	lw	a0,-3992(s0)
40002a24:	3c024008 	lui	v0,0x4008
40002a28:	9446f064 	lhu	a2,-3996(v0)
40002a2c:	24840038 	addiu	a0,a0,56
40002a30:	0c0000a6 	jal	40000298 <_restoreexec>
40002a34:	24050001 	li	a1,1
40002a38:	0c000867 	jal	4000219c <panic>
40002a3c:	240400ff 	li	a0,255
40002a40:	8fbf002c 	lw	ra,44(sp)
40002a44:	8fb40028 	lw	s4,40(sp)
40002a48:	8fb30024 	lw	s3,36(sp)
40002a4c:	8fb20020 	lw	s2,32(sp)
40002a50:	8fb1001c 	lw	s1,28(sp)
40002a54:	8fb00018 	lw	s0,24(sp)
40002a58:	03e00008 	jr	ra
40002a5c:	27bd0030 	addiu	sp,sp,48
40002a60:	0c000867 	jal	4000219c <panic>
40002a64:	24040003 	li	a0,3
40002a68:	8fbf002c 	lw	ra,44(sp)
40002a6c:	8fb40028 	lw	s4,40(sp)
40002a70:	8fb30024 	lw	s3,36(sp)
40002a74:	8fb20020 	lw	s2,32(sp)
40002a78:	8fb1001c 	lw	s1,28(sp)
40002a7c:	8fb00018 	lw	s0,24(sp)
40002a80:	03e00008 	jr	ra
40002a84:	27bd0030 	addiu	sp,sp,48
40002a88:	08000a59 	j	40002964 <dispatch_isr+0xb8>
40002a8c:	a0430016 	sb	v1,22(v0)

40002a90 <sched_priorityrr>:
40002a90:	3c024008 	lui	v0,0x4008
40002a94:	8c44f07c 	lw	a0,-3972(v0)
40002a98:	27bdffd0 	addiu	sp,sp,-48
40002a9c:	afb2001c 	sw	s2,28(sp)
40002aa0:	afbf002c 	sw	ra,44(sp)
40002aa4:	afb50028 	sw	s5,40(sp)
40002aa8:	afb40024 	sw	s4,36(sp)
40002aac:	afb30020 	sw	s3,32(sp)
40002ab0:	afb10018 	sw	s1,24(sp)
40002ab4:	0c0008fc 	jal	400023f0 <hf_queue_count>
40002ab8:	afb00014 	sw	s0,20(sp)
40002abc:	10400048 	beqz	v0,40002be0 <sched_priorityrr+0x150>
40002ac0:	00409021 	move	s2,v0
40002ac4:	0c0009ca 	jal	40002728 <run_queue_next>
40002ac8:	00000000 	nop
40002acc:	1a400048 	blez	s2,40002bf0 <sched_priorityrr+0x160>
40002ad0:	241400ff 	li	s4,255
40002ad4:	00008021 	move	s0,zero
40002ad8:	00008821 	move	s1,zero
40002adc:	3c134008 	lui	s3,0x4008
40002ae0:	24150003 	li	s5,3
40002ae4:	0c0009ca 	jal	40002728 <run_queue_next>
40002ae8:	26310001 	addiu	s1,s1,1
40002aec:	8e63f068 	lw	v1,-3992(s3)
40002af0:	90640019 	lbu	a0,25(v1)
40002af4:	10800004 	beqz	a0,40002b08 <sched_priorityrr+0x78>
40002af8:	00000000 	nop
40002afc:	90620016 	lbu	v0,22(v1)
40002b00:	14550028 	bne	v0,s5,40002ba4 <sched_priorityrr+0x114>
40002b04:	00000000 	nop
40002b08:	90620018 	lbu	v0,24(v1)
40002b0c:	0054202b 	sltu	a0,v0,s4
40002b10:	10800006 	beqz	a0,40002b2c <sched_priorityrr+0x9c>
40002b14:	00000000 	nop
40002b18:	90640016 	lbu	a0,22(v1)
40002b1c:	10950003 	beq	a0,s5,40002b2c <sched_priorityrr+0x9c>
40002b20:	00000000 	nop
40002b24:	00608021 	move	s0,v1
40002b28:	0040a021 	move	s4,v0
40002b2c:	1632ffed 	bne	s1,s2,40002ae4 <sched_priorityrr+0x54>
40002b30:	00000000 	nop
40002b34:	00008821 	move	s1,zero
40002b38:	0c0009ca 	jal	40002728 <run_queue_next>
40002b3c:	26310001 	addiu	s1,s1,1
40002b40:	8e63f068 	lw	v1,-3992(s3)
40002b44:	12030005 	beq	s0,v1,40002b5c <sched_priorityrr+0xcc>
40002b48:	00000000 	nop
40002b4c:	90640018 	lbu	a0,24(v1)
40002b50:	92020018 	lbu	v0,24(s0)
40002b54:	00821023 	subu	v0,a0,v0
40002b58:	a0620018 	sb	v0,24(v1)
40002b5c:	1632fff6 	bne	s1,s2,40002b38 <sched_priorityrr+0xa8>
40002b60:	00000000 	nop
40002b64:	92020017 	lbu	v0,23(s0)
40002b68:	8e030024 	lw	v1,36(s0)
40002b6c:	ae70f068 	sw	s0,-3992(s3)
40002b70:	a2020018 	sb	v0,24(s0)
40002b74:	8fbf002c 	lw	ra,44(sp)
40002b78:	24630001 	addiu	v1,v1,1
40002b7c:	96020000 	lhu	v0,0(s0)
40002b80:	ae030024 	sw	v1,36(s0)
40002b84:	8fb50028 	lw	s5,40(sp)
40002b88:	8fb40024 	lw	s4,36(sp)
40002b8c:	8fb30020 	lw	s3,32(sp)
40002b90:	8fb2001c 	lw	s2,28(sp)
40002b94:	8fb10018 	lw	s1,24(sp)
40002b98:	8fb00014 	lw	s0,20(sp)
40002b9c:	03e00008 	jr	ra
40002ba0:	27bd0030 	addiu	sp,sp,48
40002ba4:	00608021 	move	s0,v1
40002ba8:	a0600019 	sb	zero,25(v1)
40002bac:	8e030024 	lw	v1,36(s0)
40002bb0:	8fbf002c 	lw	ra,44(sp)
40002bb4:	96020000 	lhu	v0,0(s0)
40002bb8:	24630001 	addiu	v1,v1,1
40002bbc:	ae030024 	sw	v1,36(s0)
40002bc0:	8fb50028 	lw	s5,40(sp)
40002bc4:	8fb40024 	lw	s4,36(sp)
40002bc8:	8fb30020 	lw	s3,32(sp)
40002bcc:	8fb2001c 	lw	s2,28(sp)
40002bd0:	8fb10018 	lw	s1,24(sp)
40002bd4:	8fb00014 	lw	s0,20(sp)
40002bd8:	03e00008 	jr	ra
40002bdc:	27bd0030 	addiu	sp,sp,48
40002be0:	0c000867 	jal	4000219c <panic>
40002be4:	24040005 	li	a0,5
40002be8:	0c0009ca 	jal	40002728 <run_queue_next>
40002bec:	00000000 	nop
40002bf0:	00008021 	move	s0,zero
40002bf4:	08000ad9 	j	40002b64 <sched_priorityrr+0xd4>
40002bf8:	3c134008 	lui	s3,0x4008

40002bfc <sched_rma>:
40002bfc:	27bdffc8 	addiu	sp,sp,-56
40002c00:	afb10018 	sw	s1,24(sp)
40002c04:	3c114008 	lui	s1,0x4008
40002c08:	8e24f080 	lw	a0,-3968(s1)
40002c0c:	afb30020 	sw	s3,32(sp)
40002c10:	afbf0034 	sw	ra,52(sp)
40002c14:	afb70030 	sw	s7,48(sp)
40002c18:	afb6002c 	sw	s6,44(sp)
40002c1c:	afb50028 	sw	s5,40(sp)
40002c20:	afb40024 	sw	s4,36(sp)
40002c24:	afb2001c 	sw	s2,28(sp)
40002c28:	0c0008fc 	jal	400023f0 <hf_queue_count>
40002c2c:	afb00014 	sw	s0,20(sp)
40002c30:	00409821 	move	s3,v0
40002c34:	12600059 	beqz	s3,40002d9c <sched_rma+0x1a0>
40002c38:	00001021 	move	v0,zero
40002c3c:	2676ffff 	addiu	s6,s3,-1
40002c40:	00009021 	move	s2,zero
40002c44:	0256102a 	slt	v0,s2,s6
40002c48:	10400023 	beqz	v0,40002cd8 <sched_rma+0xdc>
40002c4c:	0220a821 	move	s5,s1
40002c50:	26540001 	addiu	s4,s2,1
40002c54:	0293102a 	slt	v0,s4,s3
40002c58:	1040001b 	beqz	v0,40002cc8 <sched_rma+0xcc>
40002c5c:	00000000 	nop
40002c60:	08000b1d 	j	40002c74 <sched_rma+0x78>
40002c64:	02808021 	move	s0,s4
40002c68:	26100001 	addiu	s0,s0,1
40002c6c:	12130016 	beq	s0,s3,40002cc8 <sched_rma+0xcc>
40002c70:	00000000 	nop
40002c74:	8e24f080 	lw	a0,-3968(s1)
40002c78:	0c00093b 	jal	400024ec <hf_queue_get>
40002c7c:	02402821 	move	a1,s2
40002c80:	8e24f080 	lw	a0,-3968(s1)
40002c84:	02002821 	move	a1,s0
40002c88:	0c00093b 	jal	400024ec <hf_queue_get>
40002c8c:	0040b821 	move	s7,v0
40002c90:	9442002c 	lhu	v0,44(v0)
40002c94:	96e3002c 	lhu	v1,44(s7)
40002c98:	0043102b 	sltu	v0,v0,v1
40002c9c:	1040fff2 	beqz	v0,40002c68 <sched_rma+0x6c>
40002ca0:	8ea4f080 	lw	a0,-3968(s5)
40002ca4:	02003021 	move	a2,s0
40002ca8:	0c000954 	jal	40002550 <hf_queue_swap>
40002cac:	02402821 	move	a1,s2
40002cb0:	1040ffed 	beqz	v0,40002c68 <sched_rma+0x6c>
40002cb4:	2404000c 	li	a0,12
40002cb8:	0c000867 	jal	4000219c <panic>
40002cbc:	26100001 	addiu	s0,s0,1
40002cc0:	1613ffed 	bne	s0,s3,40002c78 <sched_rma+0x7c>
40002cc4:	8e24f080 	lw	a0,-3968(s1)
40002cc8:	02809021 	move	s2,s4
40002ccc:	0296102a 	slt	v0,s4,s6
40002cd0:	1440ffe0 	bnez	v0,40002c54 <sched_rma+0x58>
40002cd4:	26540001 	addiu	s4,s2,1
40002cd8:	1a60002c 	blez	s3,40002d8c <sched_rma+0x190>
40002cdc:	3c124008 	lui	s2,0x4008
40002ce0:	0000a821 	move	s5,zero
40002ce4:	00008021 	move	s0,zero
40002ce8:	0240b021 	move	s6,s2
40002cec:	24140003 	li	s4,3
40002cf0:	0c000920 	jal	40002480 <hf_queue_remhead>
40002cf4:	8e24f080 	lw	a0,-3968(s1)
40002cf8:	1040004e 	beqz	v0,40002e34 <sched_rma+0x238>
40002cfc:	ae42f068 	sw	v0,-3992(s2)
40002d00:	8e24f080 	lw	a0,-3968(s1)
40002d04:	0c0008fe 	jal	400023f8 <hf_queue_addtail>
40002d08:	00402821 	move	a1,v0
40002d0c:	1440002e 	bnez	v0,40002dc8 <sched_rma+0x1cc>
40002d10:	00000000 	nop
40002d14:	8e42f068 	lw	v0,-3992(s2)
40002d18:	90430016 	lbu	v1,22(v0)
40002d1c:	10740008 	beq	v1,s4,40002d40 <sched_rma+0x144>
40002d20:	00000000 	nop
40002d24:	94430032 	lhu	v1,50(v0)
40002d28:	10600005 	beqz	v1,40002d40 <sched_rma+0x144>
40002d2c:	00000000 	nop
40002d30:	16a00003 	bnez	s5,40002d40 <sched_rma+0x144>
40002d34:	2463ffff 	addiu	v1,v1,-1
40002d38:	94550000 	lhu	s5,0(v0)
40002d3c:	a4430032 	sh	v1,50(v0)
40002d40:	94430034 	lhu	v1,52(v0)
40002d44:	2463ffff 	addiu	v1,v1,-1
40002d48:	3063ffff 	andi	v1,v1,0xffff
40002d4c:	1460000a 	bnez	v1,40002d78 <sched_rma+0x17c>
40002d50:	a4430034 	sh	v1,52(v0)
40002d54:	9444002c 	lhu	a0,44(v0)
40002d58:	94430032 	lhu	v1,50(v0)
40002d5c:	10600004 	beqz	v1,40002d70 <sched_rma+0x174>
40002d60:	a4440034 	sh	a0,52(v0)
40002d64:	8c430028 	lw	v1,40(v0)
40002d68:	24630001 	addiu	v1,v1,1
40002d6c:	ac430028 	sw	v1,40(v0)
40002d70:	9443002e 	lhu	v1,46(v0)
40002d74:	a4430032 	sh	v1,50(v0)
40002d78:	26100001 	addiu	s0,s0,1
40002d7c:	1613ffdc 	bne	s0,s3,40002cf0 <sched_rma+0xf4>
40002d80:	00000000 	nop
40002d84:	16a00014 	bnez	s5,40002dd8 <sched_rma+0x1dc>
40002d88:	00151880 	sll	v1,s5,0x2
40002d8c:	3c024000 	lui	v0,0x4000
40002d90:	24423d5c 	addiu	v0,v0,15708
40002d94:	ae42f068 	sw	v0,-3992(s2)
40002d98:	00001021 	move	v0,zero
40002d9c:	8fbf0034 	lw	ra,52(sp)
40002da0:	8fb70030 	lw	s7,48(sp)
40002da4:	8fb6002c 	lw	s6,44(sp)
40002da8:	8fb50028 	lw	s5,40(sp)
40002dac:	8fb40024 	lw	s4,36(sp)
40002db0:	8fb30020 	lw	s3,32(sp)
40002db4:	8fb2001c 	lw	s2,28(sp)
40002db8:	8fb10018 	lw	s1,24(sp)
40002dbc:	8fb00014 	lw	s0,20(sp)
40002dc0:	03e00008 	jr	ra
40002dc4:	27bd0038 	addiu	sp,sp,56
40002dc8:	0c000867 	jal	4000219c <panic>
40002dcc:	2404000b 	li	a0,11
40002dd0:	08000b46 	j	40002d18 <sched_rma+0x11c>
40002dd4:	8e42f068 	lw	v0,-3992(s2)
40002dd8:	00151100 	sll	v0,s5,0x4
40002ddc:	00621021 	addu	v0,v1,v0
40002de0:	00551023 	subu	v0,v0,s5
40002de4:	3c034000 	lui	v1,0x4000
40002de8:	000210c0 	sll	v0,v0,0x3
40002dec:	24633d5c 	addiu	v1,v1,15708
40002df0:	00621821 	addu	v1,v1,v0
40002df4:	8c640020 	lw	a0,32(v1)
40002df8:	8fbf0034 	lw	ra,52(sp)
40002dfc:	02a01021 	move	v0,s5
40002e00:	24840001 	addiu	a0,a0,1
40002e04:	ae43f068 	sw	v1,-3992(s2)
40002e08:	8fb70030 	lw	s7,48(sp)
40002e0c:	8fb6002c 	lw	s6,44(sp)
40002e10:	8fb50028 	lw	s5,40(sp)
40002e14:	8fb40024 	lw	s4,36(sp)
40002e18:	8fb30020 	lw	s3,32(sp)
40002e1c:	8fb2001c 	lw	s2,28(sp)
40002e20:	8fb10018 	lw	s1,24(sp)
40002e24:	8fb00014 	lw	s0,20(sp)
40002e28:	ac640020 	sw	a0,32(v1)
40002e2c:	03e00008 	jr	ra
40002e30:	27bd0038 	addiu	sp,sp,56
40002e34:	0c000867 	jal	4000219c <panic>
40002e38:	24040006 	li	a0,6
40002e3c:	08000b40 	j	40002d00 <sched_rma+0x104>
40002e40:	8ec2f068 	lw	v0,-3992(s6)

40002e44 <hf_selfid>:
40002e44:	27bdffe8 	addiu	sp,sp,-24
40002e48:	afbf0014 	sw	ra,20(sp)
40002e4c:	0c000116 	jal	40000458 <_read_us>
40002e50:	00000000 	nop
40002e54:	3c044000 	lui	a0,0x4000
40002e58:	00602821 	move	a1,v1
40002e5c:	0c000265 	jal	40000994 <dprintf>
40002e60:	248439cc 	addiu	a0,a0,14796
40002e64:	3c024008 	lui	v0,0x4008
40002e68:	8c42f068 	lw	v0,-3992(v0)
40002e6c:	8fbf0014 	lw	ra,20(sp)
40002e70:	27bd0018 	addiu	sp,sp,24
40002e74:	03e00008 	jr	ra
40002e78:	94420000 	lhu	v0,0(v0)

40002e7c <hf_selfname>:
40002e7c:	27bdffe8 	addiu	sp,sp,-24
40002e80:	afbf0014 	sw	ra,20(sp)
40002e84:	0c000116 	jal	40000458 <_read_us>
40002e88:	00000000 	nop
40002e8c:	3c044000 	lui	a0,0x4000
40002e90:	00602821 	move	a1,v1
40002e94:	0c000265 	jal	40000994 <dprintf>
40002e98:	248439dc 	addiu	a0,a0,14812
40002e9c:	3c024008 	lui	v0,0x4008
40002ea0:	8c42f068 	lw	v0,-3992(v0)
40002ea4:	8fbf0014 	lw	ra,20(sp)
40002ea8:	27bd0018 	addiu	sp,sp,24
40002eac:	03e00008 	jr	ra
40002eb0:	24420002 	addiu	v0,v0,2

40002eb4 <hf_jobs>:
40002eb4:	27bdffe8 	addiu	sp,sp,-24
40002eb8:	afbf0014 	sw	ra,20(sp)
40002ebc:	afb00010 	sw	s0,16(sp)
40002ec0:	0c000116 	jal	40000458 <_read_us>
40002ec4:	3090ffff 	andi	s0,a0,0xffff
40002ec8:	3c044000 	lui	a0,0x4000
40002ecc:	00602821 	move	a1,v1
40002ed0:	0c000265 	jal	40000994 <dprintf>
40002ed4:	24843a00 	addiu	a0,a0,14848
40002ed8:	2e03001e 	sltiu	v1,s0,30
40002edc:	10600010 	beqz	v1,40002f20 <hf_jobs+0x6c>
40002ee0:	2402ff9c 	li	v0,-100
40002ee4:	00102080 	sll	a0,s0,0x2
40002ee8:	00101900 	sll	v1,s0,0x4
40002eec:	00831821 	addu	v1,a0,v1
40002ef0:	00708023 	subu	s0,v1,s0
40002ef4:	3c034000 	lui	v1,0x4000
40002ef8:	24633d5c 	addiu	v1,v1,15708
40002efc:	001080c0 	sll	s0,s0,0x3
40002f00:	02038021 	addu	s0,s0,v1
40002f04:	8e030088 	lw	v1,136(s0)
40002f08:	10600006 	beqz	v1,40002f24 <hf_jobs+0x70>
40002f0c:	8fbf0014 	lw	ra,20(sp)
40002f10:	9602002c 	lhu	v0,44(s0)
40002f14:	14400006 	bnez	v0,40002f30 <hf_jobs+0x7c>
40002f18:	00000000 	nop
40002f1c:	8e020024 	lw	v0,36(s0)
40002f20:	8fbf0014 	lw	ra,20(sp)
40002f24:	8fb00010 	lw	s0,16(sp)
40002f28:	03e00008 	jr	ra
40002f2c:	27bd0018 	addiu	sp,sp,24
40002f30:	8e020020 	lw	v0,32(s0)
40002f34:	8fb00010 	lw	s0,16(sp)
40002f38:	03e00008 	jr	ra
40002f3c:	27bd0018 	addiu	sp,sp,24

40002f40 <hf_dlm>:
40002f40:	27bdffe8 	addiu	sp,sp,-24
40002f44:	afbf0014 	sw	ra,20(sp)
40002f48:	afb00010 	sw	s0,16(sp)
40002f4c:	0c000116 	jal	40000458 <_read_us>
40002f50:	3090ffff 	andi	s0,a0,0xffff
40002f54:	3c044000 	lui	a0,0x4000
40002f58:	00602821 	move	a1,v1
40002f5c:	0c000265 	jal	40000994 <dprintf>
40002f60:	24843a10 	addiu	a0,a0,14864
40002f64:	2e03001e 	sltiu	v1,s0,30
40002f68:	1060000d 	beqz	v1,40002fa0 <hf_dlm+0x60>
40002f6c:	2402ff9c 	li	v0,-100
40002f70:	00102080 	sll	a0,s0,0x2
40002f74:	00101900 	sll	v1,s0,0x4
40002f78:	00831821 	addu	v1,a0,v1
40002f7c:	00708023 	subu	s0,v1,s0
40002f80:	3c034000 	lui	v1,0x4000
40002f84:	24633d5c 	addiu	v1,v1,15708
40002f88:	001080c0 	sll	s0,s0,0x3
40002f8c:	02038021 	addu	s0,s0,v1
40002f90:	8e030088 	lw	v1,136(s0)
40002f94:	10600003 	beqz	v1,40002fa4 <hf_dlm+0x64>
40002f98:	8fbf0014 	lw	ra,20(sp)
40002f9c:	8e020028 	lw	v0,40(s0)
40002fa0:	8fbf0014 	lw	ra,20(sp)
40002fa4:	8fb00010 	lw	s0,16(sp)
40002fa8:	03e00008 	jr	ra
40002fac:	27bd0018 	addiu	sp,sp,24

40002fb0 <hf_spawn>:
40002fb0:	27bdffa0 	addiu	sp,sp,-96
40002fb4:	afbf005c 	sw	ra,92(sp)
40002fb8:	afb60050 	sw	s6,80(sp)
40002fbc:	afb5004c 	sw	s5,76(sp)
40002fc0:	afb20040 	sw	s2,64(sp)
40002fc4:	30f5ffff 	andi	s5,a3,0xffff
40002fc8:	afb1003c 	sw	s1,60(sp)
40002fcc:	afb00038 	sw	s0,56(sp)
40002fd0:	0080b021 	move	s6,a0
40002fd4:	30d0ffff 	andi	s0,a2,0xffff
40002fd8:	30b1ffff 	andi	s1,a1,0xffff
40002fdc:	afbe0058 	sw	s8,88(sp)
40002fe0:	afb70054 	sw	s7,84(sp)
40002fe4:	afb40048 	sw	s4,72(sp)
40002fe8:	afb30044 	sw	s3,68(sp)
40002fec:	afa00028 	sw	zero,40(sp)
40002ff0:	0c000116 	jal	40000458 <_read_us>
40002ff4:	00000000 	nop
40002ff8:	3c044000 	lui	a0,0x4000
40002ffc:	00602821 	move	a1,v1
40003000:	0c000265 	jal	40000994 <dprintf>
40003004:	24843a50 	addiu	a0,a0,14928
40003008:	0c000082 	jal	40000208 <_interrupt_set>
4000300c:	00002021 	move	a0,zero
40003010:	afa2002c 	sw	v0,44(sp)
40003014:	3c124000 	lui	s2,0x4000
40003018:	8fa20028 	lw	v0,40(sp)
4000301c:	08000c11 	j	40003044 <hf_spawn+0x94>
40003020:	26523d5c 	addiu	s2,s2,15708
40003024:	8fa20028 	lw	v0,40(sp)
40003028:	2c42001e 	sltiu	v0,v0,30
4000302c:	1040000e 	beqz	v0,40003068 <hf_spawn+0xb8>
40003030:	00000000 	nop
40003034:	8fa20028 	lw	v0,40(sp)
40003038:	24420001 	addiu	v0,v0,1
4000303c:	afa20028 	sw	v0,40(sp)
40003040:	8fa20028 	lw	v0,40(sp)
40003044:	00022080 	sll	a0,v0,0x2
40003048:	00021900 	sll	v1,v0,0x4
4000304c:	00831821 	addu	v1,a0,v1
40003050:	00621023 	subu	v0,v1,v0
40003054:	000210c0 	sll	v0,v0,0x3
40003058:	02421021 	addu	v0,s2,v0
4000305c:	8c420088 	lw	v0,136(v0)
40003060:	1440fff0 	bnez	v0,40003024 <hf_spawn+0x74>
40003064:	00000000 	nop
40003068:	8fa30028 	lw	v1,40(sp)
4000306c:	2402001e 	li	v0,30
40003070:	10620094 	beq	v1,v0,400032c4 <hf_spawn+0x314>
40003074:	00000000 	nop
40003078:	8fa20028 	lw	v0,40(sp)
4000307c:	3c174008 	lui	s7,0x4008
40003080:	96e7f074 	lhu	a3,-3980(s7)
40003084:	00022080 	sll	a0,v0,0x2
40003088:	00021900 	sll	v1,v0,0x4
4000308c:	00831821 	addu	v1,a0,v1
40003090:	00621023 	subu	v0,v1,v0
40003094:	8fa30028 	lw	v1,40(sp)
40003098:	8fa50070 	lw	a1,112(sp)
4000309c:	000210c0 	sll	v0,v0,0x3
400030a0:	02421021 	addu	v0,s2,v0
400030a4:	3c134008 	lui	s3,0x4008
400030a8:	24e70001 	addiu	a3,a3,1
400030ac:	24060014 	li	a2,20
400030b0:	a4430000 	sh	v1,0(v0)
400030b4:	24440002 	addiu	a0,v0,2
400030b8:	a6e7f074 	sh	a3,-3980(s7)
400030bc:	0c00039c 	jal	40000e70 <strncpy>
400030c0:	ae62f068 	sw	v0,-3992(s3)
400030c4:	8fb40074 	lw	s4,116(sp)
400030c8:	8e7ef068 	lw	s8,-3992(s3)
400030cc:	24020064 	li	v0,100
400030d0:	26940003 	addiu	s4,s4,3
400030d4:	0014a082 	srl	s4,s4,0x2
400030d8:	0014a080 	sll	s4,s4,0x2
400030dc:	02802021 	move	a0,s4
400030e0:	a3c00016 	sb	zero,22(s8)
400030e4:	a3c20017 	sb	v0,23(s8)
400030e8:	a3c20018 	sb	v0,24(s8)
400030ec:	afc0001c 	sw	zero,28(s8)
400030f0:	a7d1002c 	sh	s1,44(s8)
400030f4:	a7d0002e 	sh	s0,46(s8)
400030f8:	a7d50030 	sh	s5,48(s8)
400030fc:	a7d00032 	sh	s0,50(s8)
40003100:	a7d50034 	sh	s5,52(s8)
40003104:	afc00020 	sw	zero,32(s8)
40003108:	afc00024 	sw	zero,36(s8)
4000310c:	afc00028 	sw	zero,40(s8)
40003110:	afd60088 	sw	s6,136(s8)
40003114:	0c0007eb 	jal	40001fac <hf_malloc>
40003118:	afd40090 	sw	s4,144(s8)
4000311c:	8e63f068 	lw	v1,-3992(s3)
40003120:	afc2008c 	sw	v0,140(s8)
40003124:	8c65008c 	lw	a1,140(v1)
40003128:	94640000 	lhu	a0,0(v1)
4000312c:	24a5fffc 	addiu	a1,a1,-4
40003130:	0c0000f3 	jal	400003cc <_set_task_sp>
40003134:	00b42821 	addu	a1,a1,s4
40003138:	8e62f068 	lw	v0,-3992(s3)
4000313c:	8c450088 	lw	a1,136(v0)
40003140:	0c000109 	jal	40000424 <_set_task_tp>
40003144:	94440000 	lhu	a0,0(v0)
40003148:	8e65f068 	lw	a1,-3992(s3)
4000314c:	8ca2008c 	lw	v0,140(a1)
40003150:	1040004d 	beqz	v0,40003288 <hf_spawn+0x2d8>
40003154:	3c03b00b 	lui	v1,0xb00b
40003158:	94a60000 	lhu	a2,0(a1)
4000315c:	3463b00b 	ori	v1,v1,0xb00b
40003160:	94be002c 	lhu	s8,44(a1)
40003164:	94b7002e 	lhu	s7,46(a1)
40003168:	94b60030 	lhu	s6,48(a1)
4000316c:	8cb50088 	lw	s5,136(a1)
40003170:	00c02021 	move	a0,a2
40003174:	ac430000 	sw	v1,0(v0)
40003178:	afa50030 	sw	a1,48(sp)
4000317c:	0c0000fe 	jal	400003f8 <_get_task_sp>
40003180:	afa60034 	sw	a2,52(sp)
40003184:	8fa50030 	lw	a1,48(sp)
40003188:	8fa60034 	lw	a2,52(sp)
4000318c:	3c044000 	lui	a0,0x4000
40003190:	24843a88 	addiu	a0,a0,14984
40003194:	24a50002 	addiu	a1,a1,2
40003198:	03c03821 	move	a3,s8
4000319c:	afb70010 	sw	s7,16(sp)
400031a0:	afb60014 	sw	s6,20(sp)
400031a4:	afb50018 	sw	s5,24(sp)
400031a8:	afa2001c 	sw	v0,28(sp)
400031ac:	0c0001e8 	jal	400007a0 <kprintf>
400031b0:	afb40020 	sw	s4,32(sp)
400031b4:	1620002d 	bnez	s1,4000326c <hf_spawn+0x2bc>
400031b8:	3c024008 	lui	v0,0x4008
400031bc:	1600001f 	bnez	s0,4000323c <hf_spawn+0x28c>
400031c0:	3c044000 	lui	a0,0x4000
400031c4:	3c024008 	lui	v0,0x4008
400031c8:	8c44f07c 	lw	a0,-3972(v0)
400031cc:	0c0008fe 	jal	400023f8 <hf_queue_addtail>
400031d0:	8e65f068 	lw	a1,-3992(s3)
400031d4:	14400037 	bnez	v0,400032b4 <hf_spawn+0x304>
400031d8:	00000000 	nop
400031dc:	3c024008 	lui	v0,0x4008
400031e0:	9442f064 	lhu	v0,-3996(v0)
400031e4:	8fa4002c 	lw	a0,44(sp)
400031e8:	00022880 	sll	a1,v0,0x2
400031ec:	00021900 	sll	v1,v0,0x4
400031f0:	00a31821 	addu	v1,a1,v1
400031f4:	00621023 	subu	v0,v1,v0
400031f8:	000210c0 	sll	v0,v0,0x3
400031fc:	02429021 	addu	s2,s2,v0
40003200:	0c000082 	jal	40000208 <_interrupt_set>
40003204:	ae72f068 	sw	s2,-3992(s3)
40003208:	8fa20028 	lw	v0,40(sp)
4000320c:	8fbf005c 	lw	ra,92(sp)
40003210:	8fbe0058 	lw	s8,88(sp)
40003214:	8fb70054 	lw	s7,84(sp)
40003218:	8fb60050 	lw	s6,80(sp)
4000321c:	8fb5004c 	lw	s5,76(sp)
40003220:	8fb40048 	lw	s4,72(sp)
40003224:	8fb30044 	lw	s3,68(sp)
40003228:	8fb20040 	lw	s2,64(sp)
4000322c:	8fb1003c 	lw	s1,60(sp)
40003230:	8fb00038 	lw	s0,56(sp)
40003234:	03e00008 	jr	ra
40003238:	27bd0060 	addiu	sp,sp,96
4000323c:	0c0001e8 	jal	400007a0 <kprintf>
40003240:	24843ad0 	addiu	a0,a0,15056
40003244:	3c024008 	lui	v0,0x4008
40003248:	8c44f070 	lw	a0,-3984(v0)
4000324c:	0c0008fe 	jal	400023f8 <hf_queue_addtail>
40003250:	8e65f068 	lw	a1,-3992(s3)
40003254:	1040ffe1 	beqz	v0,400031dc <hf_spawn+0x22c>
40003258:	00000000 	nop
4000325c:	0c000867 	jal	4000219c <panic>
40003260:	2404000b 	li	a0,11
40003264:	08000c78 	j	400031e0 <hf_spawn+0x230>
40003268:	3c024008 	lui	v0,0x4008
4000326c:	8c44f080 	lw	a0,-3968(v0)
40003270:	0c0008fe 	jal	400023f8 <hf_queue_addtail>
40003274:	8e65f068 	lw	a1,-3992(s3)
40003278:	1040ffd8 	beqz	v0,400031dc <hf_spawn+0x22c>
4000327c:	00000000 	nop
40003280:	08000c97 	j	4000325c <hf_spawn+0x2ac>
40003284:	00000000 	nop
40003288:	96e2f074 	lhu	v0,-3980(s7)
4000328c:	3c044000 	lui	a0,0x4000
40003290:	aca00088 	sw	zero,136(a1)
40003294:	2442ffff 	addiu	v0,v0,-1
40003298:	24843ae8 	addiu	a0,a0,15080
4000329c:	0c0001e8 	jal	400007a0 <kprintf>
400032a0:	a6e2f074 	sh	v0,-3980(s7)
400032a4:	2402ff98 	li	v0,-104
400032a8:	afa20028 	sw	v0,40(sp)
400032ac:	08000c78 	j	400031e0 <hf_spawn+0x230>
400032b0:	3c024008 	lui	v0,0x4008
400032b4:	0c000867 	jal	4000219c <panic>
400032b8:	24040009 	li	a0,9
400032bc:	08000c78 	j	400031e0 <hf_spawn+0x230>
400032c0:	3c024008 	lui	v0,0x4008
400032c4:	3c044000 	lui	a0,0x4000
400032c8:	24843a60 	addiu	a0,a0,14944
400032cc:	0c0001e8 	jal	400007a0 <kprintf>
400032d0:	2405001e 	li	a1,30
400032d4:	8fa4002c 	lw	a0,44(sp)
400032d8:	0c000082 	jal	40000208 <_interrupt_set>
400032dc:	00000000 	nop
400032e0:	08000c83 	j	4000320c <hf_spawn+0x25c>
400032e4:	2402ff99 	li	v0,-103
